///////////////////////////////////////////////////////////////////////////////
//
// IAR C/C++ Compiler V10.10.1.4655 for 8051              16/Jul/2025  15:25:34
// Copyright 2004-2017 IAR Systems AB.
// Standalone license - IAR Embedded Workbench for 8051
//
//    Core               =  plain
//    Code model         =  banked
//    Data model         =  large
//    Calling convention =  xdata reentrant
//    Constant location  =  data_rom
//    Dptr setup         =  1,16
//                          
//    Source file        =  
//        Y:\05_产品开发\Zigbee2MQTT项目\Z-Stack_Home1.2.2_Emboard\Projects\zstack\HomeAutomation\Em_Sensor_A\Source\zcl_samplelight.c
//    Command line       =  
//        -f C:\Users\bobzh\AppData\Local\Temp\EW4A77.tmp
//        (Y:\05_产品开发\Zigbee2MQTT项目\Z-Stack_Home1.2.2_Emboard\Projects\zstack\HomeAutomation\Em_Sensor_A\Source\zcl_samplelight.c
//        -D SECURE=1 -D TC_LINKKEY_JOIN -D xNV_INIT -D xNV_RESTORE -D
//        xPOWER_SAVING -D NWK_AUTO_POLL -D xHOLD_AUTO_START -D ZTOOL_P2 -D
//        MT_TASK -D MT_APP_FUNC -D MT_SYS_FUNC -D MT_ZDO_FUNC -D
//        LCD_SUPPORTED=DEBUG -D MULTICAST_ENABLED=FALSE -D ZCL_READ -D
//        ZCL_WRITE -D ZCL_REPORT -D xZCL_EZMODE -D ZCL_BASIC -D ZCL_IDENTIFY
//        -D ZCL_ON_OFF -D ZCL_SCENES -D ZCL_GROUPS -D xZCL_LEVEL_CTRL -D
//        ZCL_DIAGNOSTIC -D FEATURE_SYSTEM_STATS -lC
//        Y:\05_产品开发\Zigbee2MQTT项目\Z-Stack_Home1.2.2_Emboard\Projects\zstack\HomeAutomation\Em_Sensor_A\CC2530DB\EndDeviceEB\List
//        -lA
//        Y:\05_产品开发\Zigbee2MQTT项目\Z-Stack_Home1.2.2_Emboard\Projects\zstack\HomeAutomation\Em_Sensor_A\CC2530DB\EndDeviceEB\List
//        --diag_suppress Pe001,Pa010 -o
//        Y:\05_产品开发\Zigbee2MQTT项目\Z-Stack_Home1.2.2_Emboard\Projects\zstack\HomeAutomation\Em_Sensor_A\CC2530DB\EndDeviceEB\Obj
//        -e --debug --core=plain --dptr=16,1 --data_model=large
//        --code_model=banked --calling_convention=xdata_reentrant
//        --place_constants=data_rom --nr_virtual_regs 16 -f
//        Y:\05_产品开发\Zigbee2MQTT项目\Z-Stack_Home1.2.2_Emboard\Projects\zstack\HomeAutomation\Em_Sensor_A\CC2530DB\..\..\..\Tools\CC2530DB\f8wEndev.cfg
//        (-DCPU32MHZ -DROOT=__near_func -DMAC_CFG_TX_DATA_MAX=3
//        -DMAC_CFG_TX_MAX=6 -DMAC_CFG_RX_MAX=3) -f
//        Y:\05_产品开发\Zigbee2MQTT项目\Z-Stack_Home1.2.2_Emboard\Projects\zstack\HomeAutomation\Em_Sensor_A\CC2530DB\..\..\..\Tools\CC2530DB\f8wConfig.cfg
//        (-DZIGBEEPRO -DSECURE=1 -DZG_SECURE_DYNAMIC=0 -DREFLECTOR
//        -DDEFAULT_CHANLIST=0x00000800 -DZDAPP_CONFIG_PAN_ID=0xFFFF
//        -DNWK_START_DELAY=100 -DEXTENDED_JOINING_RANDOM_MASK=0x007F
//        -DBEACON_REQUEST_DELAY=100 -DBEACON_REQ_DELAY_MASK=0x00FF
//        -DLINK_STATUS_JITTER_MASK=0x007F -DROUTE_EXPIRY_TIME=30
//        -DAPSC_ACK_WAIT_DURATION_POLLED=3000 -DNWK_INDIRECT_MSG_TIMEOUT=7
//        -DMAX_RREQ_ENTRIES=8 -DAPSC_MAX_FRAME_RETRIES=3
//        -DNWK_MAX_DATA_RETRIES=2 -DMAX_POLL_FAILURE_RETRIES=2 -DMAX_BCAST=9
//        -DAPS_MAX_GROUPS=16 -DMAX_RTG_ENTRIES=40 -DNWK_MAX_BINDING_ENTRIES=4
//        -DMAX_BINDING_CLUSTER_IDS=4 "-DDEFAULT_KEY={0x01, 0x03, 0x05, 0x07,
//        0x09, 0x0B, 0x0D, 0x0F, 0x00, 0x02, 0x04, 0x06, 0x08, 0x0A, 0x0C,
//        0x0D}" -DMAC_MAX_FRAME_SIZE=116 -DZDNWKMGR_MIN_TRANSMISSIONS=20
//        "-DCONST=const __code" -DGENERIC=__generic -DRFD_RCVC_ALWAYS_ON=FALSE
//        -DPOLL_RATE=1000 -DQUEUED_POLL_RATE=100 -DRESPONSE_POLL_RATE=100
//        -DREJOIN_POLL_RATE=440 -DREJOIN_BACKOFF=900000 -DREJOIN_SCAN=900000)
//        -f
//        Y:\05_产品开发\Zigbee2MQTT项目\Z-Stack_Home1.2.2_Emboard\Projects\zstack\HomeAutomation\Em_Sensor_A\CC2530DB\..\..\..\Tools\CC2530DB\f8wZCL.cfg
//        (-DZCL_READ -DZCL_WRITE -DZCL_REPORT -DZCL_ON_OFF) -I
//        Y:\05_产品开发\Zigbee2MQTT项目\Z-Stack_Home1.2.2_Emboard\Projects\zstack\HomeAutomation\Em_Sensor_A\CC2530DB\
//        -I
//        Y:\05_产品开发\Zigbee2MQTT项目\Z-Stack_Home1.2.2_Emboard\Projects\zstack\HomeAutomation\Em_Sensor_A\CC2530DB\..\Source\
//        -I
//        Y:\05_产品开发\Zigbee2MQTT项目\Z-Stack_Home1.2.2_Emboard\Projects\zstack\HomeAutomation\Em_Sensor_A\CC2530DB\..\..\Source\
//        -I
//        Y:\05_产品开发\Zigbee2MQTT项目\Z-Stack_Home1.2.2_Emboard\Projects\zstack\HomeAutomation\Em_Sensor_A\CC2530DB\..\..\..\ZMain\TI2530DB\
//        -I
//        Y:\05_产品开发\Zigbee2MQTT项目\Z-Stack_Home1.2.2_Emboard\Projects\zstack\HomeAutomation\Em_Sensor_A\CC2530DB\..\..\..\..\..\Components\hal\include\
//        -I
//        Y:\05_产品开发\Zigbee2MQTT项目\Z-Stack_Home1.2.2_Emboard\Projects\zstack\HomeAutomation\Em_Sensor_A\CC2530DB\..\..\..\..\..\Components\hal\target\CC2530EB\
//        -I
//        Y:\05_产品开发\Zigbee2MQTT项目\Z-Stack_Home1.2.2_Emboard\Projects\zstack\HomeAutomation\Em_Sensor_A\CC2530DB\..\..\..\..\..\Components\mac\include\
//        -I
//        Y:\05_产品开发\Zigbee2MQTT项目\Z-Stack_Home1.2.2_Emboard\Projects\zstack\HomeAutomation\Em_Sensor_A\CC2530DB\..\..\..\..\..\Components\mac\high_level\
//        -I
//        Y:\05_产品开发\Zigbee2MQTT项目\Z-Stack_Home1.2.2_Emboard\Projects\zstack\HomeAutomation\Em_Sensor_A\CC2530DB\..\..\..\..\..\Components\mac\low_level\srf04\
//        -I
//        Y:\05_产品开发\Zigbee2MQTT项目\Z-Stack_Home1.2.2_Emboard\Projects\zstack\HomeAutomation\Em_Sensor_A\CC2530DB\..\..\..\..\..\Components\mac\low_level\srf04\single_chip\
//        -I
//        Y:\05_产品开发\Zigbee2MQTT项目\Z-Stack_Home1.2.2_Emboard\Projects\zstack\HomeAutomation\Em_Sensor_A\CC2530DB\..\..\..\..\..\Components\mt\
//        -I
//        Y:\05_产品开发\Zigbee2MQTT项目\Z-Stack_Home1.2.2_Emboard\Projects\zstack\HomeAutomation\Em_Sensor_A\CC2530DB\..\..\..\..\..\Components\osal\include\
//        -I
//        Y:\05_产品开发\Zigbee2MQTT项目\Z-Stack_Home1.2.2_Emboard\Projects\zstack\HomeAutomation\Em_Sensor_A\CC2530DB\..\..\..\..\..\Components\services\saddr\
//        -I
//        Y:\05_产品开发\Zigbee2MQTT项目\Z-Stack_Home1.2.2_Emboard\Projects\zstack\HomeAutomation\Em_Sensor_A\CC2530DB\..\..\..\..\..\Components\services\sdata\
//        -I
//        Y:\05_产品开发\Zigbee2MQTT项目\Z-Stack_Home1.2.2_Emboard\Projects\zstack\HomeAutomation\Em_Sensor_A\CC2530DB\..\..\..\..\..\Components\stack\af\
//        -I
//        Y:\05_产品开发\Zigbee2MQTT项目\Z-Stack_Home1.2.2_Emboard\Projects\zstack\HomeAutomation\Em_Sensor_A\CC2530DB\..\..\..\..\..\Components\stack\nwk\
//        -I
//        Y:\05_产品开发\Zigbee2MQTT项目\Z-Stack_Home1.2.2_Emboard\Projects\zstack\HomeAutomation\Em_Sensor_A\CC2530DB\..\..\..\..\..\Components\stack\sapi\
//        -I
//        Y:\05_产品开发\Zigbee2MQTT项目\Z-Stack_Home1.2.2_Emboard\Projects\zstack\HomeAutomation\Em_Sensor_A\CC2530DB\..\..\..\..\..\Components\stack\sec\
//        -I
//        Y:\05_产品开发\Zigbee2MQTT项目\Z-Stack_Home1.2.2_Emboard\Projects\zstack\HomeAutomation\Em_Sensor_A\CC2530DB\..\..\..\..\..\Components\stack\sys\
//        -I
//        Y:\05_产品开发\Zigbee2MQTT项目\Z-Stack_Home1.2.2_Emboard\Projects\zstack\HomeAutomation\Em_Sensor_A\CC2530DB\..\..\..\..\..\Components\stack\zcl\
//        -I
//        Y:\05_产品开发\Zigbee2MQTT项目\Z-Stack_Home1.2.2_Emboard\Projects\zstack\HomeAutomation\Em_Sensor_A\CC2530DB\..\..\..\..\..\Components\stack\zdo\
//        -I
//        Y:\05_产品开发\Zigbee2MQTT项目\Z-Stack_Home1.2.2_Emboard\Projects\zstack\HomeAutomation\Em_Sensor_A\CC2530DB\..\..\..\..\..\Components\zmac\
//        -I
//        Y:\05_产品开发\Zigbee2MQTT项目\Z-Stack_Home1.2.2_Emboard\Projects\zstack\HomeAutomation\Em_Sensor_A\CC2530DB\..\..\..\..\..\Components\zmac\f8w\
//        -Ohz --require_prototypes)
//    Locale             =  Chinese (Simplified)_China.936
//    List file          =  
//        Y:\05_产品开发\Zigbee2MQTT项目\Z-Stack_Home1.2.2_Emboard\Projects\zstack\HomeAutomation\Em_Sensor_A\CC2530DB\EndDeviceEB\List\zcl_samplelight.s51
//
///////////////////////////////////////////////////////////////////////////////

        NAME zcl_samplelight

        RTMODEL "__SystemLibrary", "CLib"
        RTMODEL "__calling_convention", "xdata_reentrant"
        RTMODEL "__code_model", "banked"
        RTMODEL "__core", "plain"
        RTMODEL "__data_model", "large"
        RTMODEL "__dptr_size", "16"
        RTMODEL "__extended_stack", "disabled"
        RTMODEL "__location_for_constants", "data"
        RTMODEL "__number_of_dptrs", "1"
        RTMODEL "__register_banks", "*"
        RTMODEL "__rt_version", "1"

        RSEG DOVERLAY:DATA:NOROOT(0)
        RSEG IOVERLAY:IDATA:NOROOT(0)
        RSEG ISTACK:IDATA:NOROOT(0)
        RSEG PSTACK:XDATA:NOROOT(0)
        RSEG XSTACK:XDATA:NOROOT(0)

        EXTERN ?V0
        EXTERN ?V1
        EXTERN ?V2
        EXTERN ?V3
        EXTERN ?ALLOC_XSTACK8
        EXTERN ?BANKED_ENTER_XDATA
        EXTERN ?BANKED_LEAVE_XDATA
        EXTERN ?BDISPATCH
        EXTERN ?BRET
        EXTERN ?DEALLOC_XSTACK8
        EXTERN ?PUSH_XSTACK8_X_FOUR
        EXTERN ?PUSH_XSTACK_I_ONE
        EXTERN ?PUSH_XSTACK_I_TWO
        EXTERN ?XSP
        EXTERN ?XSTACK_DISP0_8
        EXTERN ?XSTACK_DISP101_8
        EXTERN __INIT_XDATA_I
        EXTERN __INIT_XDATA_Z

        FUNCTION `??zclSampleLight_BasicResetCB::?relay`,0203H
        FUNCTION `??zclSampleLight_HandleKeys::?relay`,0203H
        FUNCTION `??zclSampleLight_IdentifyCB::?relay`,0203H
        FUNCTION `??zclSampleLight_IdentifyQueryRspCB::?relay`,0203H
        PUBLIC `??zclSampleLight_Init::?relay`
        FUNCTION `??zclSampleLight_Init::?relay`,0203H
        FUNCTION `??zclSampleLight_LcdDisplayUpdate::?relay`,0203H
        FUNCTION `??zclSampleLight_OnOffCB::?relay`,0203H
        FUNCTION `??zclSampleLight_ProcessIdentifyTimeChange::?re`,0203H
        FUNCTION `??zclSampleLight_ProcessIncomingMsg::?relay`,0203H
        FUNCTION `??zclSampleLight_SendSwitchReport::?relay`,0203H
        PUBLIC `??zclSampleLight_event_loop::?relay`
        FUNCTION `??zclSampleLight_event_loop::?relay`,0203H
        PUBWEAK __Constant_3e8
        PUBLIC bindingInClusters
        PUBLIC gPermitDuration
        PUBLIC giLightScreenMode
        PUBLIC sClearLine
        PUBLIC sDeviceName
        PUBLIC sLightOff
        PUBLIC sLightOn
        PUBLIC sSwEZMode
        PUBLIC sSwHelp
        PUBLIC sSwLight
        FUNCTION zclSampleLight_BasicResetCB,021603H
        ARGFRAME XSTACK, 21, STACK
        ARGFRAME IOVERLAY, 0, STATIC
        ARGFRAME DOVERLAY, 0, STATIC
        LOCFRAME ISTACK, 2, STACK
        LOCFRAME XSTACK, 5, STACK
        PUBLIC zclSampleLight_DstAddr
        FUNCTION zclSampleLight_HandleKeys,0a1203H
        ARGFRAME XSTACK, 12, STACK
        ARGFRAME IOVERLAY, 0, STATIC
        ARGFRAME DOVERLAY, 0, STATIC
        LOCFRAME XSTACK, 30, STACK
        FUNCTION zclSampleLight_IdentifyCB,021603H
        ARGFRAME XSTACK, 0, STACK
        LOCFRAME XSTACK, 9, STACK
        FUNCTION zclSampleLight_IdentifyQueryRspCB,021603H
        ARGFRAME XSTACK, 0, STACK
        LOCFRAME ISTACK, 2, STACK
        PUBLIC zclSampleLight_Init
        FUNCTION zclSampleLight_Init,021203H
        ARGFRAME XSTACK, 0, STACK
        LOCFRAME XSTACK, 9, STACK
        FUNCTION zclSampleLight_LcdDisplayUpdate,021203H
        ARGFRAME XSTACK, 21, STACK
        ARGFRAME IOVERLAY, 0, STATIC
        ARGFRAME DOVERLAY, 0, STATIC
        LOCFRAME ISTACK, 2, STACK
        PUBLIC zclSampleLight_NwkState
        FUNCTION zclSampleLight_OnOffCB,0a1603H
        ARGFRAME XSTACK, 0, STACK
        LOCFRAME XSTACK, 10, STACK
        FUNCTION zclSampleLight_ProcessIdentifyTimeChange,021203H
        ARGFRAME XSTACK, 12, STACK
        ARGFRAME IOVERLAY, 0, STATIC
        ARGFRAME DOVERLAY, 0, STATIC
        LOCFRAME ISTACK, 2, STACK
        LOCFRAME XSTACK, 4, STACK
        FUNCTION zclSampleLight_ProcessIncomingMsg,0a1203H
        ARGFRAME XSTACK, 12, STACK
        ARGFRAME IOVERLAY, 0, STATIC
        ARGFRAME DOVERLAY, 0, STATIC
        LOCFRAME XSTACK, 10, STACK
        FUNCTION zclSampleLight_SendSwitchReport,0a1203H
        ARGFRAME XSTACK, 21, STACK
        ARGFRAME IOVERLAY, 0, STATIC
        ARGFRAME DOVERLAY, 0, STATIC
        LOCFRAME ISTACK, 1, STACK
        LOCFRAME XSTACK, 30, STACK
        PUBLIC zclSampleLight_SeqNum
        PUBLIC zclSampleLight_TaskID
        PUBLIC zclSampleLight_event_loop
        FUNCTION zclSampleLight_event_loop,0a1203H
        ARGFRAME XSTACK, 0, STACK
        LOCFRAME XSTACK, 12, STACK
        
          CFI Names cfiNames0
          CFI StackFrame CFA_SP SP IDATA
          CFI StackFrame CFA_PSP16 PSP16 XDATA
          CFI StackFrame CFA_XSP16 XSP16 XDATA
          CFI StaticOverlayFrame CFA_IOVERLAY IOVERLAY
          CFI StaticOverlayFrame CFA_DOVERLAY DOVERLAY
          CFI Resource `PSW.CY`:1, `B.BR0`:1, `B.BR1`:1, `B.BR2`:1, `B.BR3`:1
          CFI Resource `B.BR4`:1, `B.BR5`:1, `B.BR6`:1, `B.BR7`:1, `VB.BR8`:1
          CFI Resource `VB.BR9`:1, `VB.BR10`:1, `VB.BR11`:1, `VB.BR12`:1
          CFI Resource `VB.BR13`:1, `VB.BR14`:1, `VB.BR15`:1, VB:8, B:8, A:8
          CFI Resource PSW:8, DPL0:8, DPH0:8, R0:8, R1:8, R2:8, R3:8, R4:8, R5:8
          CFI Resource R6:8, R7:8, V0:8, V1:8, V2:8, V3:8, V4:8, V5:8, V6:8, V7:8
          CFI Resource V8:8, V9:8, V10:8, V11:8, V12:8, V13:8, V14:8, V15:8, SP:8
          CFI Resource PSPH:8, PSPL:8, PSP16:16, XSPH:8, XSPL:8, XSP16:16
          CFI VirtualResource ?RET:24
          CFI Resource ?BRET_EXT:8
          CFI VirtualResource ?RET_HIGH:8, ?RET_LOW:8
          CFI ResourceParts PSP16 PSPH, PSPL
          CFI ResourceParts XSP16 XSPH, XSPL
          CFI ResourceParts ?RET ?BRET_EXT, ?RET_HIGH, ?RET_LOW
          CFI EndNames cfiNames0
        
          CFI Common cfiCommon0 Using cfiNames0
          CFI CodeAlign 1
          CFI DataAlign -1
          CFI ReturnAddress ?RET CODE
          CFI CFA_DOVERLAY Used
          CFI CFA_IOVERLAY Used
          CFI CFA_SP SP+-3
          CFI CFA_PSP16 PSP16+0
          CFI CFA_XSP16 XSP16+0
          CFI `PSW.CY` SameValue
          CFI `B.BR0` SameValue
          CFI `B.BR1` SameValue
          CFI `B.BR2` SameValue
          CFI `B.BR3` SameValue
          CFI `B.BR4` SameValue
          CFI `B.BR5` SameValue
          CFI `B.BR6` SameValue
          CFI `B.BR7` SameValue
          CFI `VB.BR8` SameValue
          CFI `VB.BR9` SameValue
          CFI `VB.BR10` SameValue
          CFI `VB.BR11` SameValue
          CFI `VB.BR12` SameValue
          CFI `VB.BR13` SameValue
          CFI `VB.BR14` SameValue
          CFI `VB.BR15` SameValue
          CFI VB SameValue
          CFI B Undefined
          CFI A Undefined
          CFI PSW SameValue
          CFI DPL0 SameValue
          CFI DPH0 SameValue
          CFI R0 Undefined
          CFI R1 Undefined
          CFI R2 Undefined
          CFI R3 Undefined
          CFI R4 Undefined
          CFI R5 Undefined
          CFI R6 SameValue
          CFI R7 SameValue
          CFI V0 SameValue
          CFI V1 SameValue
          CFI V2 SameValue
          CFI V3 SameValue
          CFI V4 SameValue
          CFI V5 SameValue
          CFI V6 SameValue
          CFI V7 SameValue
          CFI V8 SameValue
          CFI V9 SameValue
          CFI V10 SameValue
          CFI V11 SameValue
          CFI V12 SameValue
          CFI V13 SameValue
          CFI V14 SameValue
          CFI V15 SameValue
          CFI PSPH Undefined
          CFI PSPL Undefined
          CFI XSPH Undefined
          CFI XSPL Undefined
          CFI ?RET Concat
          CFI ?BRET_EXT Frame(CFA_SP, 3)
          CFI ?RET_HIGH Frame(CFA_SP, 2)
          CFI ?RET_LOW Frame(CFA_SP, 1)
          CFI EndCommon cfiCommon0
        
        
          CFI Common cfiCommon1 Using cfiNames0
          CFI CodeAlign 1
          CFI DataAlign -1
          CFI ReturnAddress ?RET CODE
          CFI CFA_DOVERLAY Used
          CFI CFA_IOVERLAY Used
          CFI CFA_SP SP+-2
          CFI CFA_PSP16 PSP16+0
          CFI CFA_XSP16 XSP16+0
          CFI `PSW.CY` SameValue
          CFI `B.BR0` SameValue
          CFI `B.BR1` SameValue
          CFI `B.BR2` SameValue
          CFI `B.BR3` SameValue
          CFI `B.BR4` SameValue
          CFI `B.BR5` SameValue
          CFI `B.BR6` SameValue
          CFI `B.BR7` SameValue
          CFI `VB.BR8` SameValue
          CFI `VB.BR9` SameValue
          CFI `VB.BR10` SameValue
          CFI `VB.BR11` SameValue
          CFI `VB.BR12` SameValue
          CFI `VB.BR13` SameValue
          CFI `VB.BR14` SameValue
          CFI `VB.BR15` SameValue
          CFI VB SameValue
          CFI B SameValue
          CFI A SameValue
          CFI PSW SameValue
          CFI DPL0 SameValue
          CFI DPH0 SameValue
          CFI R0 SameValue
          CFI R1 SameValue
          CFI R2 SameValue
          CFI R3 SameValue
          CFI R4 SameValue
          CFI R5 SameValue
          CFI R6 SameValue
          CFI R7 SameValue
          CFI V0 SameValue
          CFI V1 SameValue
          CFI V2 SameValue
          CFI V3 SameValue
          CFI V4 SameValue
          CFI V5 SameValue
          CFI V6 SameValue
          CFI V7 SameValue
          CFI V8 SameValue
          CFI V9 SameValue
          CFI V10 SameValue
          CFI V11 SameValue
          CFI V12 SameValue
          CFI V13 SameValue
          CFI V14 SameValue
          CFI V15 SameValue
          CFI PSPH Undefined
          CFI PSPL Undefined
          CFI XSPH Undefined
          CFI XSPL Undefined
          CFI ?RET Concat
          CFI ?BRET_EXT SameValue
          CFI ?RET_HIGH Frame(CFA_SP, 2)
          CFI ?RET_LOW Frame(CFA_SP, 1)
          CFI EndCommon cfiCommon1
        
HalLcdWriteString   SYMBOL "HalLcdWriteString"
`??HalLcdWriteString::?relay` SYMBOL "?relay", HalLcdWriteString
HalLedBlink         SYMBOL "HalLedBlink"
`??HalLedBlink::?relay` SYMBOL "?relay", HalLedBlink
HalLedSet           SYMBOL "HalLedSet"
`??HalLedSet::?relay` SYMBOL "?relay", HalLedSet
NLME_GetShortAddr   SYMBOL "NLME_GetShortAddr"
`??NLME_GetShortAddr::?relay` SYMBOL "?relay", NLME_GetShortAddr
NLME_LeaveReq       SYMBOL "NLME_LeaveReq"
`??NLME_LeaveReq::?relay` SYMBOL "?relay", NLME_LeaveReq
NLME_SendNetworkStatus SYMBOL "NLME_SendNetworkStatus"
`??NLME_SendNetworkStatus::?relay` SYMBOL "?relay", NLME_SendNetworkStatus
RegisterForKeys     SYMBOL "RegisterForKeys"
`??RegisterForKeys::?relay` SYMBOL "?relay", RegisterForKeys
ZDApp_LeaveReset    SYMBOL "ZDApp_LeaveReset"
`??ZDApp_LeaveReset::?relay` SYMBOL "?relay", ZDApp_LeaveReset
ZDP_EndDeviceBindReq SYMBOL "ZDP_EndDeviceBindReq"
`??ZDP_EndDeviceBindReq::?relay` SYMBOL "?relay", ZDP_EndDeviceBindReq
ZDP_MgmtPermitJoinReq SYMBOL "ZDP_MgmtPermitJoinReq"
`??ZDP_MgmtPermitJoinReq::?relay` SYMBOL "?relay", ZDP_MgmtPermitJoinReq
afRegister          SYMBOL "afRegister"
`??afRegister::?relay` SYMBOL "?relay", afRegister
debug_str           SYMBOL "debug_str"
`??debug_str::?relay` SYMBOL "?relay", debug_str
osal_mem_alloc      SYMBOL "osal_mem_alloc"
`??osal_mem_alloc::?relay` SYMBOL "?relay", osal_mem_alloc
osal_mem_free       SYMBOL "osal_mem_free"
`??osal_mem_free::?relay` SYMBOL "?relay", osal_mem_free
osal_memset         SYMBOL "osal_memset"
`??osal_memset::?relay` SYMBOL "?relay", osal_memset
osal_msg_deallocate SYMBOL "osal_msg_deallocate"
`??osal_msg_deallocate::?relay` SYMBOL "?relay", osal_msg_deallocate
osal_msg_receive    SYMBOL "osal_msg_receive"
`??osal_msg_receive::?relay` SYMBOL "?relay", osal_msg_receive
osal_start_timerEx  SYMBOL "osal_start_timerEx"
`??osal_start_timerEx::?relay` SYMBOL "?relay", osal_start_timerEx
osal_stop_timerEx   SYMBOL "osal_stop_timerEx"
`??osal_stop_timerEx::?relay` SYMBOL "?relay", osal_stop_timerEx
zclDiagnostic_InitStats SYMBOL "zclDiagnostic_InitStats"
`??zclDiagnostic_InitStats::?relay` SYMBOL "?relay", zclDiagnostic_InitStats
`?<Name zclDiagnostic_ReadWr 40>` SYMBOL "zclDiagnostic_ReadWriteAttrCB"
`??zclDiagnostic_ReadWriteAttrCB::?relay` SYMBOL "?relay", `?<Name zclDiagnostic_ReadWr 40>`
zclGeneral_RegisterCmdCallbacks SYMBOL "zclGeneral_RegisterCmdCallbacks"
`??zclGeneral_RegisterCmdCallbacks::?relay` SYMBOL "?relay", zclGeneral_RegisterCmdCallbacks
zclHA_Init          SYMBOL "zclHA_Init"
`??zclHA_Init::?relay` SYMBOL "?relay", zclHA_Init
zclHA_LcdStatusLine1 SYMBOL "zclHA_LcdStatusLine1"
`??zclHA_LcdStatusLine1::?relay` SYMBOL "?relay", zclHA_LcdStatusLine1
zcl_SendReportCmd   SYMBOL "zcl_SendReportCmd"
`??zcl_SendReportCmd::?relay` SYMBOL "?relay", zcl_SendReportCmd
zcl_getRawAFMsg     SYMBOL "zcl_getRawAFMsg"
`??zcl_getRawAFMsg::?relay` SYMBOL "?relay", zcl_getRawAFMsg
zcl_registerAttrList SYMBOL "zcl_registerAttrList"
`??zcl_registerAttrList::?relay` SYMBOL "?relay", zcl_registerAttrList
zcl_registerForMsg  SYMBOL "zcl_registerForMsg"
`??zcl_registerForMsg::?relay` SYMBOL "?relay", zcl_registerForMsg
zcl_registerReadWriteCB SYMBOL "zcl_registerReadWriteCB"
`??zcl_registerReadWriteCB::?relay` SYMBOL "?relay", zcl_registerReadWriteCB
zgWriteStartupOptions SYMBOL "zgWriteStartupOptions"
`??zgWriteStartupOptions::?relay` SYMBOL "?relay", zgWriteStartupOptions
zclSampleLight_Init SYMBOL "zclSampleLight_Init"
`??zclSampleLight_Init::?relay` SYMBOL "?relay", zclSampleLight_Init
zclSampleLight_event_loop SYMBOL "zclSampleLight_event_loop"
`??zclSampleLight_event_loop::?relay` SYMBOL "?relay", zclSampleLight_event_loop

        EXTERN `??HalLcdWriteString::?relay`
        FUNCTION `??HalLcdWriteString::?relay`,00H
        EXTERN `??HalLedBlink::?relay`
        FUNCTION `??HalLedBlink::?relay`,00H
        EXTERN `??HalLedSet::?relay`
        FUNCTION `??HalLedSet::?relay`,00H
        EXTERN `??NLME_GetShortAddr::?relay`
        FUNCTION `??NLME_GetShortAddr::?relay`,00H
        EXTERN `??NLME_LeaveReq::?relay`
        FUNCTION `??NLME_LeaveReq::?relay`,00H
        EXTERN `??NLME_SendNetworkStatus::?relay`
        FUNCTION `??NLME_SendNetworkStatus::?relay`,00H
        EXTERN `??RegisterForKeys::?relay`
        FUNCTION `??RegisterForKeys::?relay`,00H
        EXTERN `??ZDApp_LeaveReset::?relay`
        FUNCTION `??ZDApp_LeaveReset::?relay`,00H
        EXTERN `??ZDP_EndDeviceBindReq::?relay`
        FUNCTION `??ZDP_EndDeviceBindReq::?relay`,00H
        EXTERN `??ZDP_MgmtPermitJoinReq::?relay`
        FUNCTION `??ZDP_MgmtPermitJoinReq::?relay`,00H
        EXTERN `??afRegister::?relay`
        FUNCTION `??afRegister::?relay`,00H
        EXTERN `??debug_str::?relay`
        FUNCTION `??debug_str::?relay`,00H
        EXTERN `??osal_mem_alloc::?relay`
        FUNCTION `??osal_mem_alloc::?relay`,00H
        EXTERN `??osal_mem_free::?relay`
        FUNCTION `??osal_mem_free::?relay`,00H
        EXTERN `??osal_memset::?relay`
        FUNCTION `??osal_memset::?relay`,00H
        EXTERN `??osal_msg_deallocate::?relay`
        FUNCTION `??osal_msg_deallocate::?relay`,00H
        EXTERN `??osal_msg_receive::?relay`
        FUNCTION `??osal_msg_receive::?relay`,00H
        EXTERN `??osal_start_timerEx::?relay`
        FUNCTION `??osal_start_timerEx::?relay`,00H
        EXTERN `??osal_stop_timerEx::?relay`
        FUNCTION `??osal_stop_timerEx::?relay`,00H
        EXTERN `??zclDiagnostic_InitStats::?relay`
        FUNCTION `??zclDiagnostic_InitStats::?relay`,00H
        EXTERN `??zclDiagnostic_ReadWriteAttrCB::?relay`
        FUNCTION `??zclDiagnostic_ReadWriteAttrCB::?relay`,00H
        EXTERN `??zclGeneral_RegisterCmdCallbacks::?relay`
        FUNCTION `??zclGeneral_RegisterCmdCallbacks::?relay`,00H
        EXTERN `??zclHA_Init::?relay`
        FUNCTION `??zclHA_Init::?relay`,00H
        EXTERN `??zclHA_LcdStatusLine1::?relay`
        FUNCTION `??zclHA_LcdStatusLine1::?relay`,00H
        EXTERN `??zcl_SendReportCmd::?relay`
        FUNCTION `??zcl_SendReportCmd::?relay`,00H
        EXTERN `??zcl_getRawAFMsg::?relay`
        FUNCTION `??zcl_getRawAFMsg::?relay`,00H
        EXTERN `??zcl_registerAttrList::?relay`
        FUNCTION `??zcl_registerAttrList::?relay`,00H
        EXTERN `??zcl_registerForMsg::?relay`
        FUNCTION `??zcl_registerForMsg::?relay`,00H
        EXTERN `??zcl_registerReadWriteCB::?relay`
        FUNCTION `??zcl_registerReadWriteCB::?relay`,00H
        EXTERN `??zgWriteStartupOptions::?relay`
        FUNCTION `??zgWriteStartupOptions::?relay`,00H
        EXTERN HalLcdWriteString
        FUNCTION HalLcdWriteString,0202H
        ARGFRAME ISTACK, 2, STACK
        ARGFRAME PSTACK, 0, STACK
        ARGFRAME XSTACK, 12, STACK
        ARGFRAME IOVERLAY, 0, STATIC
        ARGFRAME DOVERLAY, 0, STATIC
        EXTERN HalLedBlink
        FUNCTION HalLedBlink,0202H
        ARGFRAME ISTACK, 2, STACK
        ARGFRAME PSTACK, 0, STACK
        ARGFRAME XSTACK, 0, STACK
        ARGFRAME IOVERLAY, 0, STATIC
        ARGFRAME DOVERLAY, 0, STATIC
        EXTERN HalLedSet
        FUNCTION HalLedSet,0202H
        ARGFRAME ISTACK, 2, STACK
        ARGFRAME PSTACK, 0, STACK
        ARGFRAME XSTACK, 21, STACK
        ARGFRAME IOVERLAY, 0, STATIC
        ARGFRAME DOVERLAY, 0, STATIC
        EXTERN NLME_GetShortAddr
        FUNCTION NLME_GetShortAddr,0202H
        ARGFRAME ISTACK, 0, STACK
        ARGFRAME PSTACK, 0, STACK
        ARGFRAME XSTACK, 21, STACK
        ARGFRAME IOVERLAY, 0, STATIC
        ARGFRAME DOVERLAY, 0, STATIC
        EXTERN NLME_LeaveReq
        FUNCTION NLME_LeaveReq,0202H
        ARGFRAME ISTACK, 2, STACK
        ARGFRAME PSTACK, 0, STACK
        ARGFRAME XSTACK, 5, STACK
        ARGFRAME IOVERLAY, 0, STATIC
        ARGFRAME DOVERLAY, 0, STATIC
        EXTERN NLME_SendNetworkStatus
        FUNCTION NLME_SendNetworkStatus,0202H
        ARGFRAME ISTACK, 0, STACK
        ARGFRAME PSTACK, 0, STACK
        ARGFRAME XSTACK, 22, STACK
        ARGFRAME IOVERLAY, 0, STATIC
        ARGFRAME DOVERLAY, 0, STATIC
        EXTERN RegisterForKeys
        FUNCTION RegisterForKeys,0202H
        ARGFRAME ISTACK, 0, STACK
        ARGFRAME PSTACK, 0, STACK
        ARGFRAME XSTACK, 9, STACK
        ARGFRAME IOVERLAY, 0, STATIC
        ARGFRAME DOVERLAY, 0, STATIC
        EXTERN ZDApp_LeaveReset
        FUNCTION ZDApp_LeaveReset,0202H
        ARGFRAME ISTACK, 2, STACK
        ARGFRAME PSTACK, 0, STACK
        ARGFRAME XSTACK, 5, STACK
        ARGFRAME IOVERLAY, 0, STATIC
        ARGFRAME DOVERLAY, 0, STATIC
        EXTERN ZDP_EndDeviceBindReq
        FUNCTION ZDP_EndDeviceBindReq,0202H
        ARGFRAME ISTACK, 0, STACK
        ARGFRAME PSTACK, 0, STACK
        ARGFRAME XSTACK, 30, STACK
        ARGFRAME IOVERLAY, 0, STATIC
        ARGFRAME DOVERLAY, 0, STATIC
        EXTERN ZDP_MgmtPermitJoinReq
        FUNCTION ZDP_MgmtPermitJoinReq,0202H
        ARGFRAME ISTACK, 0, STACK
        ARGFRAME PSTACK, 0, STACK
        ARGFRAME XSTACK, 21, STACK
        ARGFRAME IOVERLAY, 0, STATIC
        ARGFRAME DOVERLAY, 0, STATIC
        EXTERN afRegister
        FUNCTION afRegister,0202H
        ARGFRAME ISTACK, 0, STACK
        ARGFRAME PSTACK, 0, STACK
        ARGFRAME XSTACK, 9, STACK
        ARGFRAME IOVERLAY, 0, STATIC
        ARGFRAME DOVERLAY, 0, STATIC
        EXTERN debug_str
        FUNCTION debug_str,0202H
        ARGFRAME ISTACK, 2, STACK
        ARGFRAME PSTACK, 0, STACK
        ARGFRAME XSTACK, 25, STACK
        ARGFRAME IOVERLAY, 0, STATIC
        ARGFRAME DOVERLAY, 0, STATIC
        EXTERN osal_mem_alloc
        FUNCTION osal_mem_alloc,0202H
        ARGFRAME ISTACK, 0, STACK
        ARGFRAME PSTACK, 0, STACK
        ARGFRAME XSTACK, 25, STACK
        ARGFRAME IOVERLAY, 0, STATIC
        ARGFRAME DOVERLAY, 0, STATIC
        EXTERN osal_mem_free
        FUNCTION osal_mem_free,0202H
        ARGFRAME ISTACK, 0, STACK
        ARGFRAME PSTACK, 0, STACK
        ARGFRAME XSTACK, 25, STACK
        ARGFRAME IOVERLAY, 0, STATIC
        ARGFRAME DOVERLAY, 0, STATIC
        EXTERN osal_memset
        FUNCTION osal_memset,0202H
        ARGFRAME ISTACK, 2, STACK
        ARGFRAME PSTACK, 0, STACK
        ARGFRAME XSTACK, 5, STACK
        ARGFRAME IOVERLAY, 0, STATIC
        ARGFRAME DOVERLAY, 0, STATIC
        EXTERN osal_msg_deallocate
        FUNCTION osal_msg_deallocate,0202H
        ARGFRAME ISTACK, 0, STACK
        ARGFRAME PSTACK, 0, STACK
        ARGFRAME XSTACK, 12, STACK
        ARGFRAME IOVERLAY, 0, STATIC
        ARGFRAME DOVERLAY, 0, STATIC
        EXTERN osal_msg_receive
        FUNCTION osal_msg_receive,0202H
        ARGFRAME ISTACK, 0, STACK
        ARGFRAME PSTACK, 0, STACK
        ARGFRAME XSTACK, 12, STACK
        ARGFRAME IOVERLAY, 0, STATIC
        ARGFRAME DOVERLAY, 0, STATIC
        EXTERN osal_start_timerEx
        FUNCTION osal_start_timerEx,0202H
        ARGFRAME ISTACK, 2, STACK
        ARGFRAME PSTACK, 0, STACK
        ARGFRAME XSTACK, 4, STACK
        ARGFRAME IOVERLAY, 0, STATIC
        ARGFRAME DOVERLAY, 0, STATIC
        EXTERN osal_stop_timerEx
        FUNCTION osal_stop_timerEx,0202H
        ARGFRAME ISTACK, 2, STACK
        ARGFRAME PSTACK, 0, STACK
        ARGFRAME XSTACK, 0, STACK
        ARGFRAME IOVERLAY, 0, STATIC
        ARGFRAME DOVERLAY, 0, STATIC
        EXTERN zclDiagnostic_InitStats
        FUNCTION zclDiagnostic_InitStats,0202H
        ARGFRAME ISTACK, 0, STACK
        ARGFRAME PSTACK, 0, STACK
        ARGFRAME XSTACK, 9, STACK
        ARGFRAME IOVERLAY, 0, STATIC
        ARGFRAME DOVERLAY, 0, STATIC
        EXTERN zclGeneral_RegisterCmdCallbacks
        FUNCTION zclGeneral_RegisterCmdCallbacks,0202H
        ARGFRAME ISTACK, 0, STACK
        ARGFRAME PSTACK, 0, STACK
        ARGFRAME XSTACK, 9, STACK
        ARGFRAME IOVERLAY, 0, STATIC
        ARGFRAME DOVERLAY, 0, STATIC
        EXTERN zclHA_Init
        FUNCTION zclHA_Init,0202H
        ARGFRAME ISTACK, 0, STACK
        ARGFRAME PSTACK, 0, STACK
        ARGFRAME XSTACK, 9, STACK
        ARGFRAME IOVERLAY, 0, STATIC
        ARGFRAME DOVERLAY, 0, STATIC
        EXTERN zclHA_LcdStatusLine1
        FUNCTION zclHA_LcdStatusLine1,0202H
        ARGFRAME ISTACK, 2, STACK
        ARGFRAME PSTACK, 0, STACK
        ARGFRAME XSTACK, 0, STACK
        ARGFRAME IOVERLAY, 0, STATIC
        ARGFRAME DOVERLAY, 0, STATIC
        EXTERN zclSampleLight_Attrs
        EXTERN zclSampleLight_IdentifyTime
        EXTERN zclSampleLight_NumAttributes
        EXTERN zclSampleLight_OnOff
        EXTERN zclSampleLight_RedOnOff
        EXTERN zclSampleLight_RedSimpleDesc
        EXTERN zclSampleLight_SimpleDesc
        EXTERN zclSampleLight_Switch1SimpleDesc
        EXTERN zclSampleLight_Switch2SimpleDesc
        EXTERN zcl_SendReportCmd
        FUNCTION zcl_SendReportCmd,0202H
        ARGFRAME ISTACK, 0, STACK
        ARGFRAME PSTACK, 0, STACK
        ARGFRAME XSTACK, 30, STACK
        ARGFRAME IOVERLAY, 0, STATIC
        ARGFRAME DOVERLAY, 0, STATIC
        EXTERN zcl_getRawAFMsg
        FUNCTION zcl_getRawAFMsg,0202H
        ARGFRAME ISTACK, 0, STACK
        ARGFRAME PSTACK, 0, STACK
        ARGFRAME XSTACK, 10, STACK
        ARGFRAME IOVERLAY, 0, STATIC
        ARGFRAME DOVERLAY, 0, STATIC
        EXTERN zcl_registerAttrList
        FUNCTION zcl_registerAttrList,0202H
        ARGFRAME ISTACK, 0, STACK
        ARGFRAME PSTACK, 0, STACK
        ARGFRAME XSTACK, 9, STACK
        ARGFRAME IOVERLAY, 0, STATIC
        ARGFRAME DOVERLAY, 0, STATIC
        EXTERN zcl_registerForMsg
        FUNCTION zcl_registerForMsg,0202H
        ARGFRAME ISTACK, 0, STACK
        ARGFRAME PSTACK, 0, STACK
        ARGFRAME XSTACK, 9, STACK
        ARGFRAME IOVERLAY, 0, STATIC
        ARGFRAME DOVERLAY, 0, STATIC
        EXTERN zcl_registerReadWriteCB
        FUNCTION zcl_registerReadWriteCB,0202H
        ARGFRAME ISTACK, 0, STACK
        ARGFRAME PSTACK, 0, STACK
        ARGFRAME XSTACK, 9, STACK
        ARGFRAME IOVERLAY, 0, STATIC
        ARGFRAME DOVERLAY, 0, STATIC
        EXTERN zgWriteStartupOptions
        FUNCTION zgWriteStartupOptions,0202H
        ARGFRAME ISTACK, 2, STACK
        ARGFRAME PSTACK, 0, STACK
        ARGFRAME XSTACK, 5, STACK
        ARGFRAME IOVERLAY, 0, STATIC
        ARGFRAME DOVERLAY, 0, STATIC

// Y:\05_产品开发\Zigbee2MQTT项目\Z-Stack_Home1.2.2_Emboard\Projects\zstack\HomeAutomation\Em_Sensor_A\Source\zcl_samplelight.c
//    1 /**************************************************************************************************
//    2   Filename:       zcl_sampleLight.c
//    3   Revised:        $Date: 2014-10-24 16:04:46 -0700 (Fri, 24 Oct 2014) $
//    4   Revision:       $Revision: 40796 $
//    5 
//    6 
//    7   Description:    Zigbee Cluster Library - sample device application.
//    8 
//    9 
//   10   Copyright 2006-2014 Texas Instruments Incorporated. All rights reserved.
//   11 
//   12   IMPORTANT: Your use of this Software is limited to those specific rights
//   13   granted under the terms of a software license agreement between the user
//   14   who downloaded the software, his/her employer (which must be your employer)
//   15   and Texas Instruments Incorporated (the "License").  You may not use this
//   16   Software unless you agree to abide by the terms of the License. The License
//   17   limits your use, and you acknowledge, that the Software may not be modified,
//   18   copied or distributed unless embedded on a Texas Instruments microcontroller
//   19   or used solely and exclusively in conjunction with a Texas Instruments radio
//   20   frequency transceiver, which is integrated into your product.  Other than for
//   21   the foregoing purpose, you may not use, reproduce, copy, prepare derivative
//   22   works of, modify, distribute, perform, display or sell this Software and/or
//   23   its documentation for any purpose.
//   24 
//   25   YOU FURTHER ACKNOWLEDGE AND AGREE THAT THE SOFTWARE AND DOCUMENTATION ARE
//   26   PROVIDED "AS IS" WITHOUT WARRANTY OF ANY KIND, EITHER EXPRESS OR IMPLIED,
//   27   INCLUDING WITHOUT LIMITATION, ANY WARRANTY OF MERCHANTABILITY, TITLE,
//   28   NON-INFRINGEMENT AND FITNESS FOR A PARTICULAR PURPOSE. IN NO EVENT SHALL
//   29   TEXAS INSTRUMENTS OR ITS LICENSORS BE LIABLE OR OBLIGATED UNDER CONTRACT,
//   30   NEGLIGENCE, STRICT LIABILITY, CONTRIBUTION, BREACH OF WARRANTY, OR OTHER
//   31   LEGAL EQUITABLE THEORY ANY DIRECT OR INDIRECT DAMAGES OR EXPENSES
//   32   INCLUDING BUT NOT LIMITED TO ANY INCIDENTAL, SPECIAL, INDIRECT, PUNITIVE
//   33   OR CONSEQUENTIAL DAMAGES, LOST PROFITS OR LOST DATA, COST OF PROCUREMENT
//   34   OF SUBSTITUTE GOODS, TECHNOLOGY, SERVICES, OR ANY CLAIMS BY THIRD PARTIES
//   35   (INCLUDING BUT NOT LIMITED TO ANY DEFENSE THEREOF), OR OTHER SIMILAR COSTS.
//   36 
//   37   Should you have any questions regarding your right to use this Software,
//   38   contact Texas Instruments Incorporated at www.TI.com.
//   39 **************************************************************************************************/
//   40 
//   41 /*********************************************************************
//   42   This application implements a ZigBee HA 1.2 Light. It can be configured as an
//   43   On/Off light, or as a dimmable light. The following flags must be defined in
//   44   the compiler's pre-defined symbols.
//   45 
//   46   ZCL_ON_OFF
//   47   ZCL_LEVEL_CTRL    (only if dimming functionality desired)
//   48   HOLD_AUTO_START
//   49   ZCL_EZMODE
//   50 
//   51   This device supports all mandatory and optional commands/attributes for the
//   52   OnOff (0x0006) and LevelControl (0x0008) clusters.
//   53 
//   54   SCREEN MODES
//   55   ----------------------------------------
//   56   Main:
//   57     - SW1: Toggle local light
//   58     - SW2: Invoke EZMode
//   59     - SW4: Enable/Disable local permit join
//   60     - SW5: Go to Help screen
//   61   ----------------------------------------
//   62 *********************************************************************/
//   63 
//   64 /*********************************************************************
//   65  * INCLUDES
//   66  */
//   67 #include "ZComDef.h"
//   68 #include "OSAL.h"
//   69 #include "AF.h"
//   70 #include "ZDApp.h"
//   71 #include "ZDObject.h"
//   72 #include "MT_SYS.h"
//   73 
//   74 #include "nwk_util.h"
//   75 
//   76 #include "zcl.h"
//   77 #include "zcl_general.h"
//   78 #include "zcl_ha.h"
//   79 #include "zcl_ezmode.h"
//   80 #include "zcl_diagnostic.h"
//   81 
//   82 #include "zcl_samplelight.h"
//   83 
//   84 #include "onboard.h"
//   85 
//   86 /* HAL */
//   87 #include "hal_lcd.h"
//   88 #include "hal_led.h"
//   89 #include "hal_key.h"
//   90 
//   91 #if ( defined (ZGP_DEVICE_TARGET) || defined (ZGP_DEVICE_TARGETPLUS) \ 
//   92       || defined (ZGP_DEVICE_COMBO) || defined (ZGP_DEVICE_COMBO_MIN) )
//   93 #include "zgp_translationtable.h"
//   94   #if (SUPPORTED_S_FEATURE(SUPP_ZGP_FEATURE_TRANSLATION_TABLE))
//   95     #define ZGP_AUTO_TT
//   96   #endif
//   97 #endif
//   98 
//   99 #if (defined HAL_BOARD_ZLIGHT) || (defined HAL_PWM)
//  100 #include "math.h"
//  101 #include "hal_timer.h"
//  102 #endif
//  103 
//  104 #include "NLMEDE.h"
//  105 #include "DebugTrace.h"
//  106 
//  107 /*********************************************************************
//  108  * MACROS
//  109  */
//  110 
//  111 /*********************************************************************
//  112  * CONSTANTS
//  113  */
//  114 #if (defined HAL_BOARD_ZLIGHT)
//  115 #define LEVEL_MAX                 0xFE
//  116 #define LEVEL_MIN                 0x0
//  117 #define GAMMA_VALUE               2
//  118 #define PWM_FULL_DUTY_CYCLE       1000
//  119 #elif (defined HAL_PWM)
//  120 #define LEVEL_MAX                 0xFE
//  121 #define LEVEL_MIN                 0x0
//  122 #define GAMMA_VALUE               2
//  123 #define PWM_FULL_DUTY_CYCLE       100
//  124 #endif
//  125 
//  126 /*********************************************************************
//  127  * TYPEDEFS
//  128  */
//  129 
//  130 /*********************************************************************
//  131  * GLOBAL VARIABLES
//  132  */

        RSEG XDATA_Z:XDATA:NOROOT(0)
        DATA8
//  133 byte zclSampleLight_TaskID;
zclSampleLight_TaskID:
        DS 1
        REQUIRE __INIT_XDATA_Z

        RSEG XDATA_Z:XDATA:NOROOT(0)
        DATA8
//  134 uint8 zclSampleLight_SeqNum;
zclSampleLight_SeqNum:
        DS 1
        REQUIRE __INIT_XDATA_Z
//  135 
//  136 
//  137 /*********************************************************************
//  138  * GLOBAL FUNCTIONS
//  139  */
//  140 
//  141 /*********************************************************************
//  142  * LOCAL VARIABLES
//  143  */

        RSEG XDATA_Z:XDATA:NOROOT(0)
        DATA8
//  144 afAddrType_t zclSampleLight_DstAddr;
zclSampleLight_DstAddr:
        DS 12
        REQUIRE __INIT_XDATA_Z
//  145 
//  146 #ifdef ZCL_EZMODE
//  147 static void zclSampleLight_ProcessZDOMsgs( zdoIncomingMsg_t *pMsg );
//  148 static void zclSampleLight_EZModeCB( zlcEZMode_State_t state, zclEZMode_CBData_t *pData );
//  149 
//  150 
//  151 // register EZ-Mode with task information (timeout events, callback, etc...)
//  152 static const zclEZMode_RegisterData_t zclSampleLight_RegisterEZModeData =
//  153 {
//  154   &zclSampleLight_TaskID,
//  155   SAMPLELIGHT_EZMODE_NEXTSTATE_EVT,
//  156   SAMPLELIGHT_EZMODE_TIMEOUT_EVT,
//  157   &zclSampleLight_SeqNum,
//  158   zclSampleLight_EZModeCB
//  159 };
//  160 
//  161 #else

        RSEG XDATA_I:XDATA:NOROOT(0)
//  162 uint16 bindingInClusters[] =
bindingInClusters:
        DATA16
        DS 2
        REQUIRE `?<Initializer for bindingInClusters>`
        REQUIRE __INIT_XDATA_I
//  163 {
//  164   ZCL_CLUSTER_ID_GEN_ON_OFF
//  165 #ifdef ZCL_LEVEL_CTRL
//  166   , ZCL_CLUSTER_ID_GEN_LEVEL_CONTROL
//  167 #endif
//  168 };
//  169 #define ZCLSAMPLELIGHT_BINDINGLIST (sizeof(bindingInClusters) / sizeof(bindingInClusters[0]))
//  170 
//  171 #endif  // ZCL_EZMODE
//  172 
//  173 // Test Endpoint to allow SYS_APP_MSGs

        RSEG XDATA_I:XDATA:NOROOT(0)
//  174 static endPointDesc_t sampleLight_TestEp =
sampleLight_TestEp:
        DATA8
        DS 6
        REQUIRE `?<Initializer for sampleLight_TestEp>`
        REQUIRE __INIT_XDATA_I
//  175 {
//  176   SAMPLELIGHT_ENDPOINT,
//  177   &zclSampleLight_TaskID,
//  178   (SimpleDescriptionFormat_t *)NULL,  // No Simple description for this test endpoint
//  179   (afNetworkLatencyReq_t)0            // No Network Latency req
//  180 };
//  181 
//  182 // Red LED Endpoint

        RSEG XDATA_I:XDATA:NOROOT(0)
//  183 static endPointDesc_t sampleLight_RedEp =
sampleLight_RedEp:
        DATA8
        DS 6
        REQUIRE `?<Initializer for sampleLight_RedEp>`
        REQUIRE __INIT_XDATA_I
//  184 {
//  185   SAMPLELIGHT_RED_ENDPOINT,
//  186   &zclSampleLight_TaskID,
//  187   &zclSampleLight_RedSimpleDesc,
//  188   (afNetworkLatencyReq_t)0            // No Network Latency req
//  189 };
//  190 
//  191 // Switch1 Endpoint (P1_2)

        RSEG XDATA_I:XDATA:NOROOT(0)
//  192 static endPointDesc_t sampleLight_Switch1Ep =
sampleLight_Switch1Ep:
        DATA8
        DS 6
        REQUIRE `?<Initializer for sampleLight_Switch1Ep>`
        REQUIRE __INIT_XDATA_I
//  193 {
//  194   SAMPLELIGHT_SWITCH1_ENDPOINT,
//  195   &zclSampleLight_TaskID,
//  196   &zclSampleLight_Switch1SimpleDesc,
//  197   (afNetworkLatencyReq_t)0            // No Network Latency req
//  198 };
//  199 
//  200 // Switch2 Endpoint (P1_3)

        RSEG XDATA_I:XDATA:NOROOT(0)
//  201 static endPointDesc_t sampleLight_Switch2Ep =
sampleLight_Switch2Ep:
        DATA8
        DS 6
        REQUIRE `?<Initializer for sampleLight_Switch2Ep>`
        REQUIRE __INIT_XDATA_I
//  202 {
//  203   SAMPLELIGHT_SWITCH2_ENDPOINT,
//  204   &zclSampleLight_TaskID,
//  205   &zclSampleLight_Switch2SimpleDesc,
//  206   (afNetworkLatencyReq_t)0            // No Network Latency req
//  207 };
//  208 

        RSEG XDATA_Z:XDATA:NOROOT(0)
        DATA8
//  209 uint8 giLightScreenMode = LIGHT_MAINMODE;   // display the main screen mode first
giLightScreenMode:
        DS 1
        REQUIRE __INIT_XDATA_Z
//  210 

        RSEG XDATA_Z:XDATA:NOROOT(0)
        DATA8
//  211 uint8 gPermitDuration = 0;    // permit joining default to disabled
gPermitDuration:
        DS 1
        REQUIRE __INIT_XDATA_Z
//  212 

        RSEG XDATA_I:XDATA:NOROOT(0)
//  213 devStates_t zclSampleLight_NwkState = DEV_INIT;
zclSampleLight_NwkState:
        DATA8
        DS 1
        REQUIRE `?<Initializer for zclSampleLight_NwkState>`
        REQUIRE __INIT_XDATA_I
//  214 
//  215 #if ZCL_LEVEL_CTRL
//  216 uint8 zclSampleLight_WithOnOff;       // set to TRUE if state machine should set light on/off
//  217 uint8 zclSampleLight_NewLevel;        // new level when done moving
//  218 bool  zclSampleLight_NewLevelUp;      // is direction to new level up or down?
//  219 int32 zclSampleLight_CurrentLevel32;  // current level, fixed point (e.g. 192.456)
//  220 int32 zclSampleLight_Rate32;          // rate in units, fixed point (e.g. 16.123)
//  221 uint8 zclSampleLight_LevelLastLevel;  // to save the Current Level before the light was turned OFF
//  222 #endif
//  223 
//  224 /*********************************************************************
//  225  * LOCAL FUNCTIONS
//  226  */
//  227 static void zclSampleLight_HandleKeys( byte shift, byte keys );
//  228 static void zclSampleLight_BasicResetCB( void );
//  229 static void zclSampleLight_IdentifyCB( zclIdentify_t *pCmd );
//  230 static void zclSampleLight_IdentifyQueryRspCB( zclIdentifyQueryRsp_t *pRsp );
//  231 static void zclSampleLight_OnOffCB( uint8 cmd );
//  232 static void zclSampleLight_ProcessIdentifyTimeChange( void );
//  233 static void zclSampleLight_SendSwitchReport(uint8 endpoint, uint8 state);
//  234 #ifdef ZCL_LEVEL_CTRL
//  235 static void zclSampleLight_LevelControlMoveToLevelCB( zclLCMoveToLevel_t *pCmd );
//  236 static void zclSampleLight_LevelControlMoveCB( zclLCMove_t *pCmd );
//  237 static void zclSampleLight_LevelControlStepCB( zclLCStep_t *pCmd );
//  238 static void zclSampleLight_LevelControlStopCB( void );
//  239 static void zclSampleLight_DefaultMove( void );
//  240 static uint32 zclSampleLight_TimeRateHelper( uint8 newLevel );
//  241 static uint16 zclSampleLight_GetTime ( uint8 level, uint16 time );
//  242 static void zclSampleLight_MoveBasedOnRate( uint8 newLevel, uint32 rate );
//  243 static void zclSampleLight_MoveBasedOnTime( uint8 newLevel, uint16 time );
//  244 static void zclSampleLight_AdjustLightLevel( void );
//  245 #endif
//  246 
//  247 // app display functions
//  248 static void zclSampleLight_LcdDisplayUpdate( void );
//  249 #ifdef LCD_SUPPORTED
//  250 static void zclSampleLight_LcdDisplayMainMode( void );
//  251 static void zclSampleLight_LcdDisplayHelpMode( void );
//  252 #endif
//  253 static void zclSampleLight_DisplayLight( void );
//  254 
//  255 #if (defined HAL_BOARD_ZLIGHT) || (defined HAL_PWM)
//  256 void zclSampleLight_UpdateLampLevel( uint8 level );
//  257 #endif
//  258 
//  259 // Functions to process ZCL Foundation incoming Command/Response messages
//  260 static void zclSampleLight_ProcessIncomingMsg( zclIncomingMsg_t *msg );
//  261 #ifdef ZCL_READ
//  262 static uint8 zclSampleLight_ProcessInReadRspCmd( zclIncomingMsg_t *pInMsg );
//  263 #endif
//  264 #ifdef ZCL_WRITE
//  265 static uint8 zclSampleLight_ProcessInWriteRspCmd( zclIncomingMsg_t *pInMsg );
//  266 #endif
//  267 static uint8 zclSampleLight_ProcessInDefaultRspCmd( zclIncomingMsg_t *pInMsg );
//  268 #ifdef ZCL_DISCOVER
//  269 static uint8 zclSampleLight_ProcessInDiscCmdsRspCmd( zclIncomingMsg_t *pInMsg );
//  270 static uint8 zclSampleLight_ProcessInDiscAttrsRspCmd( zclIncomingMsg_t *pInMsg );
//  271 static uint8 zclSampleLight_ProcessInDiscAttrsExtRspCmd( zclIncomingMsg_t *pInMsg );
//  272 #endif
//  273 
//  274 /*********************************************************************
//  275  * STATUS STRINGS
//  276  */
//  277 #ifdef LCD_SUPPORTED

        RSEG XDATA_ROM_C:CONST:REORDER:NOROOT(0)
        DATA8
//  278 const char sDeviceName[]   = "  Sample Light";
sDeviceName:
        DB "  Sample Light"

        RSEG XDATA_ROM_C:CONST:REORDER:NOROOT(0)
        DATA16
//  279 const char sClearLine[]    = " ";
sClearLine:
        DB " "

        RSEG XDATA_ROM_C:CONST:REORDER:NOROOT(0)
        DATA8
//  280 const char sSwLight[]      = "SW1: ToggleLight";  // 16 chars max
sSwLight:
        DB "SW1: ToggleLight"

        RSEG XDATA_ROM_C:CONST:REORDER:NOROOT(0)
        DATA8
//  281 const char sSwEZMode[]     = "SW2: EZ-Mode";
sSwEZMode:
        DB "SW2: EZ-Mode"

        RSEG XDATA_I:XDATA:NOROOT(0)
//  282 char sSwHelp[]             = "SW5: Help       ";  // last character is * if NWK open
sSwHelp:
        DATA8
        DS 17
        REQUIRE `?<Initializer for sSwHelp>`
        REQUIRE __INIT_XDATA_I

        RSEG XDATA_ROM_C:CONST:REORDER:NOROOT(0)
        DATA8
//  283 const char sLightOn[]      = "    LIGHT ON ";
sLightOn:
        DB "    LIGHT ON "

        RSEG XDATA_ROM_C:CONST:REORDER:NOROOT(0)
        DATA8
//  284 const char sLightOff[]     = "    LIGHT OFF";
sLightOff:
        DB "    LIGHT OFF"
//  285  #if ZCL_LEVEL_CTRL
//  286  char sLightLevel[]        = "    LEVEL ###"; // displays level 1-254
//  287  #endif
//  288 #endif
//  289 
//  290 /*********************************************************************
//  291  * ZCL General Profile Callback table
//  292  */

        RSEG XDATA_I:XDATA:NOROOT(0)
//  293 static zclGeneral_AppCallbacks_t zclSampleLight_CmdCallbacks =
zclSampleLight_CmdCallbacks:
        DATA8
        DS 28
        REQUIRE `?<Initializer for zclSampleLight_CmdCallbacks>`
        REQUIRE __INIT_XDATA_I
//  294 {
//  295   zclSampleLight_BasicResetCB,            // Basic Cluster Reset command
//  296   zclSampleLight_IdentifyCB,              // Identify command
//  297 #ifdef ZCL_EZMODE
//  298   NULL,                                   // Identify EZ-Mode Invoke command
//  299   NULL,                                   // Identify Update Commission State command
//  300 #endif
//  301   NULL,                                   // Identify Trigger Effect command
//  302   zclSampleLight_IdentifyQueryRspCB,      // Identify Query Response command
//  303   zclSampleLight_OnOffCB,                 // On/Off cluster commands
//  304   NULL,                                   // On/Off cluster enhanced command Off with Effect
//  305   NULL,                                   // On/Off cluster enhanced command On with Recall Global Scene
//  306   NULL,                                   // On/Off cluster enhanced command On with Timed Off
//  307 #ifdef ZCL_LEVEL_CTRL
//  308   zclSampleLight_LevelControlMoveToLevelCB, // Level Control Move to Level command
//  309   zclSampleLight_LevelControlMoveCB,        // Level Control Move command
//  310   zclSampleLight_LevelControlStepCB,        // Level Control Step command
//  311   zclSampleLight_LevelControlStopCB,        // Level Control Stop command
//  312 #endif
//  313 #ifdef ZCL_GROUPS
//  314   NULL,                                   // Group Response commands
//  315 #endif
//  316 #ifdef ZCL_SCENES
//  317   NULL,                                  // Scene Store Request command
//  318   NULL,                                  // Scene Recall Request command
//  319   NULL,                                  // Scene Response command
//  320 #endif
//  321 #ifdef ZCL_ALARMS
//  322   NULL,                                  // Alarm (Response) commands
//  323 #endif
//  324 #ifdef SE_UK_EXT
//  325   NULL,                                  // Get Event Log command
//  326   NULL,                                  // Publish Event Log command
//  327 #endif
//  328   NULL,                                  // RSSI Location command
//  329   NULL                                   // RSSI Location Response command
//  330 };
//  331 
//  332 /*********************************************************************
//  333  * @fn          zclSampleLight_Init
//  334  *
//  335  * @brief       Initialization function for the zclGeneral layer.
//  336  *
//  337  * @param       none
//  338  *
//  339  * @return      none
//  340  */

        RSEG BANKED_CODE:HUGECODE:NOROOT(0)
//  341 void zclSampleLight_Init( byte task_id )
zclSampleLight_Init:
          CFI Block cfiBlock0 Using cfiCommon0
          CFI Function zclSampleLight_Init
        CODE
//  342 {
        FUNCALL zclSampleLight_Init, debug_str
        LOCFRAME ISTACK, 0, STACK
        LOCFRAME PSTACK, 0, STACK
        LOCFRAME XSTACK, 9, STACK
        LOCFRAME IOVERLAY, 0, STATIC
        LOCFRAME DOVERLAY, 0, STATIC
        ARGFRAME ISTACK, 0, STACK
        ARGFRAME PSTACK, 0, STACK
        ARGFRAME XSTACK, 9, STACK
        ARGFRAME IOVERLAY, 0, STATIC
        ARGFRAME DOVERLAY, 0, STATIC
        FUNCALL zclSampleLight_Init, zclHA_Init
        LOCFRAME ISTACK, 0, STACK
        LOCFRAME PSTACK, 0, STACK
        LOCFRAME XSTACK, 9, STACK
        LOCFRAME IOVERLAY, 0, STATIC
        LOCFRAME DOVERLAY, 0, STATIC
        ARGFRAME ISTACK, 0, STACK
        ARGFRAME PSTACK, 0, STACK
        ARGFRAME XSTACK, 9, STACK
        ARGFRAME IOVERLAY, 0, STATIC
        ARGFRAME DOVERLAY, 0, STATIC
        FUNCALL zclSampleLight_Init, zclHA_Init
        LOCFRAME ISTACK, 0, STACK
        LOCFRAME PSTACK, 0, STACK
        LOCFRAME XSTACK, 9, STACK
        LOCFRAME IOVERLAY, 0, STATIC
        LOCFRAME DOVERLAY, 0, STATIC
        ARGFRAME ISTACK, 0, STACK
        ARGFRAME PSTACK, 0, STACK
        ARGFRAME XSTACK, 9, STACK
        ARGFRAME IOVERLAY, 0, STATIC
        ARGFRAME DOVERLAY, 0, STATIC
        FUNCALL zclSampleLight_Init, zclHA_Init
        LOCFRAME ISTACK, 0, STACK
        LOCFRAME PSTACK, 0, STACK
        LOCFRAME XSTACK, 9, STACK
        LOCFRAME IOVERLAY, 0, STATIC
        LOCFRAME DOVERLAY, 0, STATIC
        ARGFRAME ISTACK, 0, STACK
        ARGFRAME PSTACK, 0, STACK
        ARGFRAME XSTACK, 9, STACK
        ARGFRAME IOVERLAY, 0, STATIC
        ARGFRAME DOVERLAY, 0, STATIC
        FUNCALL zclSampleLight_Init, zclHA_Init
        LOCFRAME ISTACK, 0, STACK
        LOCFRAME PSTACK, 0, STACK
        LOCFRAME XSTACK, 9, STACK
        LOCFRAME IOVERLAY, 0, STATIC
        LOCFRAME DOVERLAY, 0, STATIC
        ARGFRAME ISTACK, 0, STACK
        ARGFRAME PSTACK, 0, STACK
        ARGFRAME XSTACK, 9, STACK
        ARGFRAME IOVERLAY, 0, STATIC
        ARGFRAME DOVERLAY, 0, STATIC
        FUNCALL zclSampleLight_Init, zclGeneral_RegisterCmdCallbacks
        LOCFRAME ISTACK, 0, STACK
        LOCFRAME PSTACK, 0, STACK
        LOCFRAME XSTACK, 9, STACK
        LOCFRAME IOVERLAY, 0, STATIC
        LOCFRAME DOVERLAY, 0, STATIC
        ARGFRAME ISTACK, 0, STACK
        ARGFRAME PSTACK, 0, STACK
        ARGFRAME XSTACK, 9, STACK
        ARGFRAME IOVERLAY, 0, STATIC
        ARGFRAME DOVERLAY, 0, STATIC
        FUNCALL zclSampleLight_Init, zclGeneral_RegisterCmdCallbacks
        LOCFRAME ISTACK, 0, STACK
        LOCFRAME PSTACK, 0, STACK
        LOCFRAME XSTACK, 9, STACK
        LOCFRAME IOVERLAY, 0, STATIC
        LOCFRAME DOVERLAY, 0, STATIC
        ARGFRAME ISTACK, 0, STACK
        ARGFRAME PSTACK, 0, STACK
        ARGFRAME XSTACK, 9, STACK
        ARGFRAME IOVERLAY, 0, STATIC
        ARGFRAME DOVERLAY, 0, STATIC
        FUNCALL zclSampleLight_Init, zclGeneral_RegisterCmdCallbacks
        LOCFRAME ISTACK, 0, STACK
        LOCFRAME PSTACK, 0, STACK
        LOCFRAME XSTACK, 9, STACK
        LOCFRAME IOVERLAY, 0, STATIC
        LOCFRAME DOVERLAY, 0, STATIC
        ARGFRAME ISTACK, 0, STACK
        ARGFRAME PSTACK, 0, STACK
        ARGFRAME XSTACK, 9, STACK
        ARGFRAME IOVERLAY, 0, STATIC
        ARGFRAME DOVERLAY, 0, STATIC
        FUNCALL zclSampleLight_Init, zclGeneral_RegisterCmdCallbacks
        LOCFRAME ISTACK, 0, STACK
        LOCFRAME PSTACK, 0, STACK
        LOCFRAME XSTACK, 9, STACK
        LOCFRAME IOVERLAY, 0, STATIC
        LOCFRAME DOVERLAY, 0, STATIC
        ARGFRAME ISTACK, 0, STACK
        ARGFRAME PSTACK, 0, STACK
        ARGFRAME XSTACK, 9, STACK
        ARGFRAME IOVERLAY, 0, STATIC
        ARGFRAME DOVERLAY, 0, STATIC
        FUNCALL zclSampleLight_Init, zcl_registerAttrList
        LOCFRAME ISTACK, 0, STACK
        LOCFRAME PSTACK, 0, STACK
        LOCFRAME XSTACK, 9, STACK
        LOCFRAME IOVERLAY, 0, STATIC
        LOCFRAME DOVERLAY, 0, STATIC
        ARGFRAME ISTACK, 0, STACK
        ARGFRAME PSTACK, 0, STACK
        ARGFRAME XSTACK, 9, STACK
        ARGFRAME IOVERLAY, 0, STATIC
        ARGFRAME DOVERLAY, 0, STATIC
        FUNCALL zclSampleLight_Init, zcl_registerAttrList
        LOCFRAME ISTACK, 0, STACK
        LOCFRAME PSTACK, 0, STACK
        LOCFRAME XSTACK, 9, STACK
        LOCFRAME IOVERLAY, 0, STATIC
        LOCFRAME DOVERLAY, 0, STATIC
        ARGFRAME ISTACK, 0, STACK
        ARGFRAME PSTACK, 0, STACK
        ARGFRAME XSTACK, 9, STACK
        ARGFRAME IOVERLAY, 0, STATIC
        ARGFRAME DOVERLAY, 0, STATIC
        FUNCALL zclSampleLight_Init, zcl_registerAttrList
        LOCFRAME ISTACK, 0, STACK
        LOCFRAME PSTACK, 0, STACK
        LOCFRAME XSTACK, 9, STACK
        LOCFRAME IOVERLAY, 0, STATIC
        LOCFRAME DOVERLAY, 0, STATIC
        ARGFRAME ISTACK, 0, STACK
        ARGFRAME PSTACK, 0, STACK
        ARGFRAME XSTACK, 9, STACK
        ARGFRAME IOVERLAY, 0, STATIC
        ARGFRAME DOVERLAY, 0, STATIC
        FUNCALL zclSampleLight_Init, zcl_registerAttrList
        LOCFRAME ISTACK, 0, STACK
        LOCFRAME PSTACK, 0, STACK
        LOCFRAME XSTACK, 9, STACK
        LOCFRAME IOVERLAY, 0, STATIC
        LOCFRAME DOVERLAY, 0, STATIC
        ARGFRAME ISTACK, 0, STACK
        ARGFRAME PSTACK, 0, STACK
        ARGFRAME XSTACK, 9, STACK
        ARGFRAME IOVERLAY, 0, STATIC
        ARGFRAME DOVERLAY, 0, STATIC
        FUNCALL zclSampleLight_Init, zcl_registerForMsg
        LOCFRAME ISTACK, 0, STACK
        LOCFRAME PSTACK, 0, STACK
        LOCFRAME XSTACK, 9, STACK
        LOCFRAME IOVERLAY, 0, STATIC
        LOCFRAME DOVERLAY, 0, STATIC
        ARGFRAME ISTACK, 0, STACK
        ARGFRAME PSTACK, 0, STACK
        ARGFRAME XSTACK, 9, STACK
        ARGFRAME IOVERLAY, 0, STATIC
        ARGFRAME DOVERLAY, 0, STATIC
        FUNCALL zclSampleLight_Init, RegisterForKeys
        LOCFRAME ISTACK, 0, STACK
        LOCFRAME PSTACK, 0, STACK
        LOCFRAME XSTACK, 9, STACK
        LOCFRAME IOVERLAY, 0, STATIC
        LOCFRAME DOVERLAY, 0, STATIC
        ARGFRAME ISTACK, 0, STACK
        ARGFRAME PSTACK, 0, STACK
        ARGFRAME XSTACK, 9, STACK
        ARGFRAME IOVERLAY, 0, STATIC
        ARGFRAME DOVERLAY, 0, STATIC
        FUNCALL zclSampleLight_Init, afRegister
        LOCFRAME ISTACK, 0, STACK
        LOCFRAME PSTACK, 0, STACK
        LOCFRAME XSTACK, 9, STACK
        LOCFRAME IOVERLAY, 0, STATIC
        LOCFRAME DOVERLAY, 0, STATIC
        ARGFRAME ISTACK, 0, STACK
        ARGFRAME PSTACK, 0, STACK
        ARGFRAME XSTACK, 9, STACK
        ARGFRAME IOVERLAY, 0, STATIC
        ARGFRAME DOVERLAY, 0, STATIC
        FUNCALL zclSampleLight_Init, afRegister
        LOCFRAME ISTACK, 0, STACK
        LOCFRAME PSTACK, 0, STACK
        LOCFRAME XSTACK, 9, STACK
        LOCFRAME IOVERLAY, 0, STATIC
        LOCFRAME DOVERLAY, 0, STATIC
        ARGFRAME ISTACK, 0, STACK
        ARGFRAME PSTACK, 0, STACK
        ARGFRAME XSTACK, 9, STACK
        ARGFRAME IOVERLAY, 0, STATIC
        ARGFRAME DOVERLAY, 0, STATIC
        FUNCALL zclSampleLight_Init, afRegister
        LOCFRAME ISTACK, 0, STACK
        LOCFRAME PSTACK, 0, STACK
        LOCFRAME XSTACK, 9, STACK
        LOCFRAME IOVERLAY, 0, STATIC
        LOCFRAME DOVERLAY, 0, STATIC
        ARGFRAME ISTACK, 0, STACK
        ARGFRAME PSTACK, 0, STACK
        ARGFRAME XSTACK, 9, STACK
        ARGFRAME IOVERLAY, 0, STATIC
        ARGFRAME DOVERLAY, 0, STATIC
        FUNCALL zclSampleLight_Init, afRegister
        LOCFRAME ISTACK, 0, STACK
        LOCFRAME PSTACK, 0, STACK
        LOCFRAME XSTACK, 9, STACK
        LOCFRAME IOVERLAY, 0, STATIC
        LOCFRAME DOVERLAY, 0, STATIC
        ARGFRAME ISTACK, 0, STACK
        ARGFRAME PSTACK, 0, STACK
        ARGFRAME XSTACK, 9, STACK
        ARGFRAME IOVERLAY, 0, STATIC
        ARGFRAME DOVERLAY, 0, STATIC
        FUNCALL zclSampleLight_Init, zcl_registerReadWriteCB
        LOCFRAME ISTACK, 0, STACK
        LOCFRAME PSTACK, 0, STACK
        LOCFRAME XSTACK, 9, STACK
        LOCFRAME IOVERLAY, 0, STATIC
        LOCFRAME DOVERLAY, 0, STATIC
        ARGFRAME ISTACK, 0, STACK
        ARGFRAME PSTACK, 0, STACK
        ARGFRAME XSTACK, 9, STACK
        ARGFRAME IOVERLAY, 0, STATIC
        ARGFRAME DOVERLAY, 0, STATIC
        FUNCALL zclSampleLight_Init, zclDiagnostic_InitStats
        LOCFRAME ISTACK, 0, STACK
        LOCFRAME PSTACK, 0, STACK
        LOCFRAME XSTACK, 9, STACK
        LOCFRAME IOVERLAY, 0, STATIC
        LOCFRAME DOVERLAY, 0, STATIC
        ARGFRAME ISTACK, 0, STACK
        ARGFRAME PSTACK, 0, STACK
        ARGFRAME XSTACK, 9, STACK
        ARGFRAME IOVERLAY, 0, STATIC
        ARGFRAME DOVERLAY, 0, STATIC
        FUNCALL zclSampleLight_Init, HalLcdWriteString
        LOCFRAME ISTACK, 0, STACK
        LOCFRAME PSTACK, 0, STACK
        LOCFRAME XSTACK, 9, STACK
        LOCFRAME IOVERLAY, 0, STATIC
        LOCFRAME DOVERLAY, 0, STATIC
        ARGFRAME ISTACK, 0, STACK
        ARGFRAME PSTACK, 0, STACK
        ARGFRAME XSTACK, 9, STACK
        ARGFRAME IOVERLAY, 0, STATIC
        ARGFRAME DOVERLAY, 0, STATIC
        FUNCALL zclSampleLight_Init, debug_str
        LOCFRAME ISTACK, 0, STACK
        LOCFRAME PSTACK, 0, STACK
        LOCFRAME XSTACK, 9, STACK
        LOCFRAME IOVERLAY, 0, STATIC
        LOCFRAME DOVERLAY, 0, STATIC
        ARGFRAME ISTACK, 0, STACK
        ARGFRAME PSTACK, 0, STACK
        ARGFRAME XSTACK, 9, STACK
        ARGFRAME IOVERLAY, 0, STATIC
        ARGFRAME DOVERLAY, 0, STATIC
        MOV       A,#-0x9
        LCALL     ?BANKED_ENTER_XDATA
          CFI DPH0 load(1, XDATA, add(CFA_XSP16, literal(-1)))
          CFI DPL0 load(1, XDATA, add(CFA_XSP16, literal(-2)))
          CFI ?BRET_EXT load(1, XDATA, add(CFA_XSP16, literal(-3)))
          CFI ?RET_HIGH load(1, XDATA, add(CFA_XSP16, literal(-4)))
          CFI ?RET_LOW load(1, XDATA, add(CFA_XSP16, literal(-5)))
          CFI R7 load(1, XDATA, add(CFA_XSP16, literal(-6)))
          CFI V0 load(1, XDATA, add(CFA_XSP16, literal(-7)))
          CFI VB load(1, XDATA, add(CFA_XSP16, literal(-8)))
          CFI R6 load(1, XDATA, add(CFA_XSP16, literal(-9)))
          CFI CFA_SP SP+0
          CFI CFA_XSP16 add(XSP16, 9)
        ; Saved register size: 9
        ; Auto size: 0
        MOV       A,R1
        MOV       R6,A
//  343   // 璋璇淇℃锛濮寮濮
//  344   debug_str("Init Start");
        ; Setup parameters for call to function debug_str
        MOV       R2,#`?<Constant "Init Start">` & 0xff
        MOV       R3,#(`?<Constant "Init Start">` >> 8) & 0xff
        LCALL     `??debug_str::?relay`; Banked call to: debug_str
//  345   
//  346   zclSampleLight_TaskID = task_id;
        MOV       A,R6
        MOV       DPTR,#zclSampleLight_TaskID
        MOVX      @DPTR,A
//  347 
//  348   // Set destination address to indirect
//  349   zclSampleLight_DstAddr.addrMode = (afAddrMode_t)AddrNotPresent;
        MOV       DPTR,#zclSampleLight_DstAddr + 8
        CLR       A
        MOVX      @DPTR,A
//  350   zclSampleLight_DstAddr.endPoint = 0;
        INC       DPTR
        MOVX      @DPTR,A
//  351   zclSampleLight_DstAddr.addr.shortAddr = 0;
        MOV       DPTR,#zclSampleLight_DstAddr
        MOVX      @DPTR,A
        INC       DPTR
        MOVX      @DPTR,A
//  352 
//  353   // This app is part of the Home Automation Profile
//  354   zclHA_Init( &zclSampleLight_SimpleDesc );
        ; Setup parameters for call to function zclHA_Init
        MOV       R2,#zclSampleLight_SimpleDesc & 0xff
        MOV       R3,#(zclSampleLight_SimpleDesc >> 8) & 0xff
        LCALL     `??zclHA_Init::?relay`; Banked call to: zclHA_Init
//  355   zclHA_Init( &zclSampleLight_RedSimpleDesc );
        ; Setup parameters for call to function zclHA_Init
        MOV       R2,#zclSampleLight_RedSimpleDesc & 0xff
        MOV       R3,#(zclSampleLight_RedSimpleDesc >> 8) & 0xff
        LCALL     `??zclHA_Init::?relay`; Banked call to: zclHA_Init
//  356   zclHA_Init( &zclSampleLight_Switch1SimpleDesc );  // P1_2寮
        ; Setup parameters for call to function zclHA_Init
        MOV       R2,#zclSampleLight_Switch1SimpleDesc & 0xff
        MOV       R3,#(zclSampleLight_Switch1SimpleDesc >> 8) & 0xff
        LCALL     `??zclHA_Init::?relay`; Banked call to: zclHA_Init
//  357   zclHA_Init( &zclSampleLight_Switch2SimpleDesc );  // P1_3寮
        ; Setup parameters for call to function zclHA_Init
        MOV       R2,#zclSampleLight_Switch2SimpleDesc & 0xff
        MOV       R3,#(zclSampleLight_Switch2SimpleDesc >> 8) & 0xff
        LCALL     `??zclHA_Init::?relay`; Banked call to: zclHA_Init
//  358 
//  359   // Register the ZCL General Cluster Library callback functions
//  360   zclGeneral_RegisterCmdCallbacks( SAMPLELIGHT_ENDPOINT, &zclSampleLight_CmdCallbacks );
        ; Setup parameters for call to function zclGeneral_RegisterCmdCallbacks
        MOV       R2,#zclSampleLight_CmdCallbacks & 0xff
        MOV       R3,#(zclSampleLight_CmdCallbacks >> 8) & 0xff
        MOV       R1,#0x8
        LCALL     `??zclGeneral_RegisterCmdCallbacks::?relay`; Banked call to: zclGeneral_RegisterCmdCallbacks
//  361   zclGeneral_RegisterCmdCallbacks( SAMPLELIGHT_RED_ENDPOINT, &zclSampleLight_CmdCallbacks );
        ; Setup parameters for call to function zclGeneral_RegisterCmdCallbacks
        MOV       R2,#zclSampleLight_CmdCallbacks & 0xff
        MOV       R3,#(zclSampleLight_CmdCallbacks >> 8) & 0xff
        MOV       R1,#0x9
        LCALL     `??zclGeneral_RegisterCmdCallbacks::?relay`; Banked call to: zclGeneral_RegisterCmdCallbacks
//  362   zclGeneral_RegisterCmdCallbacks( SAMPLELIGHT_SWITCH1_ENDPOINT, &zclSampleLight_CmdCallbacks );  // P1_2寮
        ; Setup parameters for call to function zclGeneral_RegisterCmdCallbacks
        MOV       R2,#zclSampleLight_CmdCallbacks & 0xff
        MOV       R3,#(zclSampleLight_CmdCallbacks >> 8) & 0xff
        MOV       R1,#0xa
        LCALL     `??zclGeneral_RegisterCmdCallbacks::?relay`; Banked call to: zclGeneral_RegisterCmdCallbacks
//  363   zclGeneral_RegisterCmdCallbacks( SAMPLELIGHT_SWITCH2_ENDPOINT, &zclSampleLight_CmdCallbacks );  // P1_3寮
        ; Setup parameters for call to function zclGeneral_RegisterCmdCallbacks
        MOV       R2,#zclSampleLight_CmdCallbacks & 0xff
        MOV       R3,#(zclSampleLight_CmdCallbacks >> 8) & 0xff
        MOV       R1,#0xb
        LCALL     `??zclGeneral_RegisterCmdCallbacks::?relay`; Banked call to: zclGeneral_RegisterCmdCallbacks
//  364 
//  365   // Register the application's attribute list
//  366   zcl_registerAttrList( SAMPLELIGHT_ENDPOINT, zclSampleLight_NumAttributes, zclSampleLight_Attrs );
        ; Setup parameters for call to function zcl_registerAttrList
        MOV       R4,#zclSampleLight_Attrs & 0xff
        MOV       R5,#(zclSampleLight_Attrs >> 8) & 0xff
        MOV       DPTR,#zclSampleLight_NumAttributes
        CLR       A
        MOVC      A,@A+DPTR
        MOV       R2,A
        MOV       R1,#0x8
        LCALL     `??zcl_registerAttrList::?relay`; Banked call to: zcl_registerAttrList
//  367   zcl_registerAttrList( SAMPLELIGHT_RED_ENDPOINT, zclSampleLight_NumAttributes, zclSampleLight_Attrs );
        ; Setup parameters for call to function zcl_registerAttrList
        MOV       R4,#zclSampleLight_Attrs & 0xff
        MOV       R5,#(zclSampleLight_Attrs >> 8) & 0xff
        MOV       DPTR,#zclSampleLight_NumAttributes
        CLR       A
        MOVC      A,@A+DPTR
        MOV       R2,A
        MOV       R1,#0x9
        LCALL     `??zcl_registerAttrList::?relay`; Banked call to: zcl_registerAttrList
//  368   zcl_registerAttrList( SAMPLELIGHT_SWITCH1_ENDPOINT, zclSampleLight_NumAttributes, zclSampleLight_Attrs );  // P1_2寮
        ; Setup parameters for call to function zcl_registerAttrList
        MOV       R4,#zclSampleLight_Attrs & 0xff
        MOV       R5,#(zclSampleLight_Attrs >> 8) & 0xff
        MOV       DPTR,#zclSampleLight_NumAttributes
        CLR       A
        MOVC      A,@A+DPTR
        MOV       R2,A
        MOV       R1,#0xa
        LCALL     `??zcl_registerAttrList::?relay`; Banked call to: zcl_registerAttrList
//  369   zcl_registerAttrList( SAMPLELIGHT_SWITCH2_ENDPOINT, zclSampleLight_NumAttributes, zclSampleLight_Attrs );  // P1_3寮
        ; Setup parameters for call to function zcl_registerAttrList
        MOV       R4,#zclSampleLight_Attrs & 0xff
        MOV       R5,#(zclSampleLight_Attrs >> 8) & 0xff
        MOV       DPTR,#zclSampleLight_NumAttributes
        CLR       A
        MOVC      A,@A+DPTR
        MOV       R2,A
        MOV       R1,#0xb
        LCALL     `??zcl_registerAttrList::?relay`; Banked call to: zcl_registerAttrList
//  370 
//  371   // Register the Application to receive the unprocessed Foundation command/response messages
//  372   zcl_registerForMsg( zclSampleLight_TaskID );
        ; Setup parameters for call to function zcl_registerForMsg
        MOV       DPTR,#zclSampleLight_TaskID
        MOVX      A,@DPTR
        MOV       R1,A
        LCALL     `??zcl_registerForMsg::?relay`; Banked call to: zcl_registerForMsg
//  373 
//  374 #ifdef ZCL_DISCOVER
//  375   // Register the application's command list
//  376   zcl_registerCmdList( SAMPLELIGHT_ENDPOINT, zclCmdsArraySize, zclSampleLight_Cmds );
//  377 #endif
//  378 
//  379   // Register for all key events - This app will handle all key events
//  380   RegisterForKeys( zclSampleLight_TaskID );
        ; Setup parameters for call to function RegisterForKeys
        MOV       DPTR,#zclSampleLight_TaskID
        MOVX      A,@DPTR
        MOV       R1,A
        LCALL     `??RegisterForKeys::?relay`; Banked call to: RegisterForKeys
//  381 
//  382   // Register for a test endpoint
//  383   afRegister( &sampleLight_TestEp );
        ; Setup parameters for call to function afRegister
        MOV       R2,#sampleLight_TestEp & 0xff
        MOV       R3,#(sampleLight_TestEp >> 8) & 0xff
        LCALL     `??afRegister::?relay`; Banked call to: afRegister
//  384   
//  385   // Register for red LED endpoint
//  386   afRegister( &sampleLight_RedEp );
        ; Setup parameters for call to function afRegister
        MOV       R2,#sampleLight_RedEp & 0xff
        MOV       R3,#(sampleLight_RedEp >> 8) & 0xff
        LCALL     `??afRegister::?relay`; Banked call to: afRegister
//  387   
//  388   // Register for switch endpoints
//  389   afRegister( &sampleLight_Switch1Ep );  // P1_2寮
        ; Setup parameters for call to function afRegister
        MOV       R2,#sampleLight_Switch1Ep & 0xff
        MOV       R3,#(sampleLight_Switch1Ep >> 8) & 0xff
        LCALL     `??afRegister::?relay`; Banked call to: afRegister
//  390   afRegister( &sampleLight_Switch2Ep );  // P1_3寮
        ; Setup parameters for call to function afRegister
        MOV       R2,#sampleLight_Switch2Ep & 0xff
        MOV       R3,#(sampleLight_Switch2Ep >> 8) & 0xff
        LCALL     `??afRegister::?relay`; Banked call to: afRegister
//  391 
//  392 #ifdef ZCL_EZMODE
//  393   // Register EZ-Mode
//  394   zcl_RegisterEZMode( &zclSampleLight_RegisterEZModeData );
//  395 
//  396   // Register with the ZDO to receive Match Descriptor Responses
//  397   ZDO_RegisterForZDOMsg(task_id, Match_Desc_rsp);
//  398 #endif
//  399 
//  400 
//  401 #if (defined HAL_BOARD_ZLIGHT) || (defined HAL_PWM)
//  402   HalTimer1Init( 0 );
//  403   halTimer1SetChannelDuty( WHITE_LED, 0 );
//  404   halTimer1SetChannelDuty( RED_LED, 0 );
//  405   halTimer1SetChannelDuty( BLUE_LED, 0 );
//  406   halTimer1SetChannelDuty( GREEN_LED, 0 );
//  407 
//  408   // find if we are already on a network from NV_RESTORE
//  409   uint8 state;
//  410   NLME_GetRequest( nwkNwkState, 0, &state );
//  411 
//  412   if ( state < NWK_ENDDEVICE )
//  413   {
//  414     // Start EZMode on Start up to avoid button press
//  415     osal_start_timerEx( zclSampleLight_TaskID, SAMPLELIGHT_START_EZMODE_EVT, 500 );
//  416   }
//  417 #if ZCL_LEVEL_CTRL
//  418   zclSampleLight_DefaultMove();
//  419 #endif
//  420 #endif // #if (defined HAL_BOARD_ZLIGHT) || (defined HAL_PWM)
//  421 
//  422 #ifdef ZCL_DIAGNOSTIC
//  423   // Register the application's callback function to read/write attribute data.
//  424   // This is only required when the attribute data format is unknown to ZCL.
//  425   zcl_registerReadWriteCB( SAMPLELIGHT_ENDPOINT, zclDiagnostic_ReadWriteAttrCB, NULL );
        ; Setup parameters for call to function zcl_registerReadWriteCB
        MOV       R4,#0x0
        MOV       R5,#0x0
        MOV       R2,#`??zclDiagnostic_ReadWriteAttrCB::?relay` & 0xff
        MOV       R3,#(`??zclDiagnostic_ReadWriteAttrCB::?relay` >> 8) & 0xff
        MOV       R1,#0x8
        LCALL     `??zcl_registerReadWriteCB::?relay`; Banked call to: zcl_registerReadWriteCB
//  426 
//  427   if ( zclDiagnostic_InitStats() == ZSuccess )
        ; Setup parameters for call to function zclDiagnostic_InitStats
        LCALL     `??zclDiagnostic_InitStats::?relay`; Banked call to: zclDiagnostic_InitStats
//  428   {
//  429     // Here the user could start the timer to save Diagnostics to NV
//  430   }
//  431 #endif
//  432 
//  433 #ifdef LCD_SUPPORTED
//  434   HalLcdWriteString ( (char *)sDeviceName, HAL_LCD_LINE_3 );
        ; Setup parameters for call to function HalLcdWriteString
        MOV       R1,#0x3
        MOV       R2,#sDeviceName & 0xff
        MOV       R3,#(sDeviceName >> 8) & 0xff
        LCALL     `??HalLcdWriteString::?relay`; Banked call to: HalLcdWriteString
//  435 #endif  // LCD_SUPPORTED
//  436 
//  437 #ifdef ZGP_AUTO_TT
//  438   zgpTranslationTable_RegisterEP ( &zclSampleLight_SimpleDesc );
//  439   zgpTranslationTable_RegisterEP ( &zclSampleLight_RedSimpleDesc );
//  440   zgpTranslationTable_RegisterEP ( &zclSampleLight_Switch1SimpleDesc );  // P1_2寮
//  441   zgpTranslationTable_RegisterEP ( &zclSampleLight_Switch2SimpleDesc );  // P1_3寮
//  442 #endif
//  443 
//  444   // 璋璇淇℃锛濮瀹
//  445   debug_str("Init Done");
        ; Setup parameters for call to function debug_str
        MOV       R2,#`?<Constant "Init Done">` & 0xff
        MOV       R3,#(`?<Constant "Init Done">` >> 8) & 0xff
        LCALL     `??debug_str::?relay`; Banked call to: debug_str
//  446   
//  447   // S1舵妫娴瀹跺 - 宸叉敞锛淇浠ｇ逛究璋璇
//  448   // osal_start_timerEx( zclSampleLight_TaskID, SAMPLELIGHT_S1_CHECK_EVT, 1000 );
//  449 }
          CFI EndBlock cfiBlock0
        REQUIRE ?Subroutine0
        ; // Fall through to label ?Subroutine0

        RSEG BANKED_CODE:HUGECODE:NOROOT(0)
?Subroutine0:
          CFI Block cfiBlock1 Using cfiCommon0
          CFI NoFunction
          CFI CFA_SP SP+0
          CFI CFA_XSP16 add(XSP16, 9)
          CFI VB load(1, XDATA, add(CFA_XSP16, literal(-8)))
          CFI DPL0 load(1, XDATA, add(CFA_XSP16, literal(-2)))
          CFI DPH0 load(1, XDATA, add(CFA_XSP16, literal(-1)))
          CFI R6 load(1, XDATA, add(CFA_XSP16, literal(-9)))
          CFI R7 load(1, XDATA, add(CFA_XSP16, literal(-6)))
          CFI V0 load(1, XDATA, add(CFA_XSP16, literal(-7)))
          CFI ?BRET_EXT load(1, XDATA, add(CFA_XSP16, literal(-3)))
          CFI ?RET_HIGH load(1, XDATA, add(CFA_XSP16, literal(-4)))
          CFI ?RET_LOW load(1, XDATA, add(CFA_XSP16, literal(-5)))
        MOV       R7,#0x1
        LJMP      ?BANKED_LEAVE_XDATA
          CFI EndBlock cfiBlock1
//  450 
//  451 /*********************************************************************
//  452  * @fn          zclSample_event_loop
//  453  *
//  454  * @brief       Event Loop Processor for zclGeneral.
//  455  *
//  456  * @param       none
//  457  *
//  458  * @return      none
//  459  */

        RSEG BANKED_CODE:HUGECODE:NOROOT(0)
//  460 uint16 zclSampleLight_event_loop( uint8 task_id, uint16 events )
zclSampleLight_event_loop:
          CFI Block cfiBlock2 Using cfiCommon0
          CFI Function zclSampleLight_event_loop
        CODE
//  461 {
        FUNCALL zclSampleLight_event_loop, debug_str
        LOCFRAME ISTACK, 0, STACK
        LOCFRAME PSTACK, 0, STACK
        LOCFRAME XSTACK, 12, STACK
        LOCFRAME IOVERLAY, 0, STATIC
        LOCFRAME DOVERLAY, 0, STATIC
        ARGFRAME ISTACK, 0, STACK
        ARGFRAME PSTACK, 0, STACK
        ARGFRAME XSTACK, 12, STACK
        ARGFRAME IOVERLAY, 0, STATIC
        ARGFRAME DOVERLAY, 0, STATIC
        FUNCALL zclSampleLight_event_loop, zclSampleLight_ProcessIdentifyTimeChange
        LOCFRAME ISTACK, 0, STACK
        LOCFRAME PSTACK, 0, STACK
        LOCFRAME XSTACK, 12, STACK
        LOCFRAME IOVERLAY, 0, STATIC
        LOCFRAME DOVERLAY, 0, STATIC
        ARGFRAME ISTACK, 0, STACK
        ARGFRAME PSTACK, 0, STACK
        ARGFRAME XSTACK, 12, STACK
        ARGFRAME IOVERLAY, 0, STATIC
        ARGFRAME DOVERLAY, 0, STATIC
        FUNCALL zclSampleLight_event_loop, HalLcdWriteString
        LOCFRAME ISTACK, 0, STACK
        LOCFRAME PSTACK, 0, STACK
        LOCFRAME XSTACK, 12, STACK
        LOCFRAME IOVERLAY, 0, STATIC
        LOCFRAME DOVERLAY, 0, STATIC
        ARGFRAME ISTACK, 0, STACK
        ARGFRAME PSTACK, 0, STACK
        ARGFRAME XSTACK, 12, STACK
        ARGFRAME IOVERLAY, 0, STATIC
        ARGFRAME DOVERLAY, 0, STATIC
        FUNCALL zclSampleLight_event_loop, osal_msg_deallocate
        LOCFRAME ISTACK, 0, STACK
        LOCFRAME PSTACK, 0, STACK
        LOCFRAME XSTACK, 12, STACK
        LOCFRAME IOVERLAY, 0, STATIC
        LOCFRAME DOVERLAY, 0, STATIC
        ARGFRAME ISTACK, 0, STACK
        ARGFRAME PSTACK, 0, STACK
        ARGFRAME XSTACK, 12, STACK
        ARGFRAME IOVERLAY, 0, STATIC
        ARGFRAME DOVERLAY, 0, STATIC
        FUNCALL zclSampleLight_event_loop, osal_msg_receive
        LOCFRAME ISTACK, 0, STACK
        LOCFRAME PSTACK, 0, STACK
        LOCFRAME XSTACK, 12, STACK
        LOCFRAME IOVERLAY, 0, STATIC
        LOCFRAME DOVERLAY, 0, STATIC
        ARGFRAME ISTACK, 0, STACK
        ARGFRAME PSTACK, 0, STACK
        ARGFRAME XSTACK, 12, STACK
        ARGFRAME IOVERLAY, 0, STATIC
        ARGFRAME DOVERLAY, 0, STATIC
        FUNCALL zclSampleLight_event_loop, debug_str
        LOCFRAME ISTACK, 0, STACK
        LOCFRAME PSTACK, 0, STACK
        LOCFRAME XSTACK, 12, STACK
        LOCFRAME IOVERLAY, 0, STATIC
        LOCFRAME DOVERLAY, 0, STATIC
        ARGFRAME ISTACK, 0, STACK
        ARGFRAME PSTACK, 0, STACK
        ARGFRAME XSTACK, 12, STACK
        ARGFRAME IOVERLAY, 0, STATIC
        ARGFRAME DOVERLAY, 0, STATIC
        FUNCALL zclSampleLight_event_loop, zclSampleLight_ProcessIncomingMsg
        LOCFRAME ISTACK, 0, STACK
        LOCFRAME PSTACK, 0, STACK
        LOCFRAME XSTACK, 12, STACK
        LOCFRAME IOVERLAY, 0, STATIC
        LOCFRAME DOVERLAY, 0, STATIC
        ARGFRAME ISTACK, 0, STACK
        ARGFRAME PSTACK, 0, STACK
        ARGFRAME XSTACK, 12, STACK
        ARGFRAME IOVERLAY, 0, STATIC
        ARGFRAME DOVERLAY, 0, STATIC
        FUNCALL zclSampleLight_event_loop, debug_str
        LOCFRAME ISTACK, 0, STACK
        LOCFRAME PSTACK, 0, STACK
        LOCFRAME XSTACK, 12, STACK
        LOCFRAME IOVERLAY, 0, STATIC
        LOCFRAME DOVERLAY, 0, STATIC
        ARGFRAME ISTACK, 0, STACK
        ARGFRAME PSTACK, 0, STACK
        ARGFRAME XSTACK, 12, STACK
        ARGFRAME IOVERLAY, 0, STATIC
        ARGFRAME DOVERLAY, 0, STATIC
        FUNCALL zclSampleLight_event_loop, zclSampleLight_HandleKeys
        LOCFRAME ISTACK, 0, STACK
        LOCFRAME PSTACK, 0, STACK
        LOCFRAME XSTACK, 12, STACK
        LOCFRAME IOVERLAY, 0, STATIC
        LOCFRAME DOVERLAY, 0, STATIC
        ARGFRAME ISTACK, 0, STACK
        ARGFRAME PSTACK, 0, STACK
        ARGFRAME XSTACK, 12, STACK
        ARGFRAME IOVERLAY, 0, STATIC
        ARGFRAME DOVERLAY, 0, STATIC
        FUNCALL zclSampleLight_event_loop, debug_str
        LOCFRAME ISTACK, 0, STACK
        LOCFRAME PSTACK, 0, STACK
        LOCFRAME XSTACK, 12, STACK
        LOCFRAME IOVERLAY, 0, STATIC
        LOCFRAME DOVERLAY, 0, STATIC
        ARGFRAME ISTACK, 0, STACK
        ARGFRAME PSTACK, 0, STACK
        ARGFRAME XSTACK, 12, STACK
        ARGFRAME IOVERLAY, 0, STATIC
        ARGFRAME DOVERLAY, 0, STATIC
        FUNCALL zclSampleLight_event_loop, debug_str
        LOCFRAME ISTACK, 0, STACK
        LOCFRAME PSTACK, 0, STACK
        LOCFRAME XSTACK, 12, STACK
        LOCFRAME IOVERLAY, 0, STATIC
        LOCFRAME DOVERLAY, 0, STATIC
        ARGFRAME ISTACK, 0, STACK
        ARGFRAME PSTACK, 0, STACK
        ARGFRAME XSTACK, 12, STACK
        ARGFRAME IOVERLAY, 0, STATIC
        ARGFRAME DOVERLAY, 0, STATIC
        FUNCALL zclSampleLight_event_loop, debug_str
        LOCFRAME ISTACK, 0, STACK
        LOCFRAME PSTACK, 0, STACK
        LOCFRAME XSTACK, 12, STACK
        LOCFRAME IOVERLAY, 0, STATIC
        LOCFRAME DOVERLAY, 0, STATIC
        ARGFRAME ISTACK, 0, STACK
        ARGFRAME PSTACK, 0, STACK
        ARGFRAME XSTACK, 12, STACK
        ARGFRAME IOVERLAY, 0, STATIC
        ARGFRAME DOVERLAY, 0, STATIC
        FUNCALL zclSampleLight_event_loop, debug_str
        LOCFRAME ISTACK, 0, STACK
        LOCFRAME PSTACK, 0, STACK
        LOCFRAME XSTACK, 12, STACK
        LOCFRAME IOVERLAY, 0, STATIC
        LOCFRAME DOVERLAY, 0, STATIC
        ARGFRAME ISTACK, 0, STACK
        ARGFRAME PSTACK, 0, STACK
        ARGFRAME XSTACK, 12, STACK
        ARGFRAME IOVERLAY, 0, STATIC
        ARGFRAME DOVERLAY, 0, STATIC
        FUNCALL zclSampleLight_event_loop, debug_str
        LOCFRAME ISTACK, 0, STACK
        LOCFRAME PSTACK, 0, STACK
        LOCFRAME XSTACK, 12, STACK
        LOCFRAME IOVERLAY, 0, STATIC
        LOCFRAME DOVERLAY, 0, STATIC
        ARGFRAME ISTACK, 0, STACK
        ARGFRAME PSTACK, 0, STACK
        ARGFRAME XSTACK, 12, STACK
        ARGFRAME IOVERLAY, 0, STATIC
        ARGFRAME DOVERLAY, 0, STATIC
        FUNCALL zclSampleLight_event_loop, debug_str
        LOCFRAME ISTACK, 0, STACK
        LOCFRAME PSTACK, 0, STACK
        LOCFRAME XSTACK, 12, STACK
        LOCFRAME IOVERLAY, 0, STATIC
        LOCFRAME DOVERLAY, 0, STATIC
        ARGFRAME ISTACK, 0, STACK
        ARGFRAME PSTACK, 0, STACK
        ARGFRAME XSTACK, 12, STACK
        ARGFRAME IOVERLAY, 0, STATIC
        ARGFRAME DOVERLAY, 0, STATIC
        FUNCALL zclSampleLight_event_loop, debug_str
        LOCFRAME ISTACK, 0, STACK
        LOCFRAME PSTACK, 0, STACK
        LOCFRAME XSTACK, 12, STACK
        LOCFRAME IOVERLAY, 0, STATIC
        LOCFRAME DOVERLAY, 0, STATIC
        ARGFRAME ISTACK, 0, STACK
        ARGFRAME PSTACK, 0, STACK
        ARGFRAME XSTACK, 12, STACK
        ARGFRAME IOVERLAY, 0, STATIC
        ARGFRAME DOVERLAY, 0, STATIC
        FUNCALL zclSampleLight_event_loop, debug_str
        LOCFRAME ISTACK, 0, STACK
        LOCFRAME PSTACK, 0, STACK
        LOCFRAME XSTACK, 12, STACK
        LOCFRAME IOVERLAY, 0, STATIC
        LOCFRAME DOVERLAY, 0, STATIC
        ARGFRAME ISTACK, 0, STACK
        ARGFRAME PSTACK, 0, STACK
        ARGFRAME XSTACK, 12, STACK
        ARGFRAME IOVERLAY, 0, STATIC
        ARGFRAME DOVERLAY, 0, STATIC
        FUNCALL zclSampleLight_event_loop, debug_str
        LOCFRAME ISTACK, 0, STACK
        LOCFRAME PSTACK, 0, STACK
        LOCFRAME XSTACK, 12, STACK
        LOCFRAME IOVERLAY, 0, STATIC
        LOCFRAME DOVERLAY, 0, STATIC
        ARGFRAME ISTACK, 0, STACK
        ARGFRAME PSTACK, 0, STACK
        ARGFRAME XSTACK, 12, STACK
        ARGFRAME IOVERLAY, 0, STATIC
        ARGFRAME DOVERLAY, 0, STATIC
        FUNCALL zclSampleLight_event_loop, debug_str
        LOCFRAME ISTACK, 0, STACK
        LOCFRAME PSTACK, 0, STACK
        LOCFRAME XSTACK, 12, STACK
        LOCFRAME IOVERLAY, 0, STATIC
        LOCFRAME DOVERLAY, 0, STATIC
        ARGFRAME ISTACK, 0, STACK
        ARGFRAME PSTACK, 0, STACK
        ARGFRAME XSTACK, 12, STACK
        ARGFRAME IOVERLAY, 0, STATIC
        ARGFRAME DOVERLAY, 0, STATIC
        FUNCALL zclSampleLight_event_loop, debug_str
        LOCFRAME ISTACK, 0, STACK
        LOCFRAME PSTACK, 0, STACK
        LOCFRAME XSTACK, 12, STACK
        LOCFRAME IOVERLAY, 0, STATIC
        LOCFRAME DOVERLAY, 0, STATIC
        ARGFRAME ISTACK, 0, STACK
        ARGFRAME PSTACK, 0, STACK
        ARGFRAME XSTACK, 12, STACK
        ARGFRAME IOVERLAY, 0, STATIC
        ARGFRAME DOVERLAY, 0, STATIC
        FUNCALL zclSampleLight_event_loop, zclSampleLight_LcdDisplayUpdate
        LOCFRAME ISTACK, 0, STACK
        LOCFRAME PSTACK, 0, STACK
        LOCFRAME XSTACK, 12, STACK
        LOCFRAME IOVERLAY, 0, STATIC
        LOCFRAME DOVERLAY, 0, STATIC
        ARGFRAME ISTACK, 0, STACK
        ARGFRAME PSTACK, 0, STACK
        ARGFRAME XSTACK, 12, STACK
        ARGFRAME IOVERLAY, 0, STATIC
        ARGFRAME DOVERLAY, 0, STATIC
        FUNCALL zclSampleLight_event_loop, debug_str
        LOCFRAME ISTACK, 0, STACK
        LOCFRAME PSTACK, 0, STACK
        LOCFRAME XSTACK, 12, STACK
        LOCFRAME IOVERLAY, 0, STATIC
        LOCFRAME DOVERLAY, 0, STATIC
        ARGFRAME ISTACK, 0, STACK
        ARGFRAME PSTACK, 0, STACK
        ARGFRAME XSTACK, 12, STACK
        ARGFRAME IOVERLAY, 0, STATIC
        ARGFRAME DOVERLAY, 0, STATIC
        FUNCALL zclSampleLight_event_loop, debug_str
        LOCFRAME ISTACK, 0, STACK
        LOCFRAME PSTACK, 0, STACK
        LOCFRAME XSTACK, 12, STACK
        LOCFRAME IOVERLAY, 0, STATIC
        LOCFRAME DOVERLAY, 0, STATIC
        ARGFRAME ISTACK, 0, STACK
        ARGFRAME PSTACK, 0, STACK
        ARGFRAME XSTACK, 12, STACK
        ARGFRAME IOVERLAY, 0, STATIC
        ARGFRAME DOVERLAY, 0, STATIC
        FUNCALL zclSampleLight_event_loop, debug_str
        LOCFRAME ISTACK, 0, STACK
        LOCFRAME PSTACK, 0, STACK
        LOCFRAME XSTACK, 12, STACK
        LOCFRAME IOVERLAY, 0, STATIC
        LOCFRAME DOVERLAY, 0, STATIC
        ARGFRAME ISTACK, 0, STACK
        ARGFRAME PSTACK, 0, STACK
        ARGFRAME XSTACK, 12, STACK
        ARGFRAME IOVERLAY, 0, STATIC
        ARGFRAME DOVERLAY, 0, STATIC
        FUNCALL zclSampleLight_event_loop, zclSampleLight_LcdDisplayUpdate
        LOCFRAME ISTACK, 0, STACK
        LOCFRAME PSTACK, 0, STACK
        LOCFRAME XSTACK, 12, STACK
        LOCFRAME IOVERLAY, 0, STATIC
        LOCFRAME DOVERLAY, 0, STATIC
        ARGFRAME ISTACK, 0, STACK
        ARGFRAME PSTACK, 0, STACK
        ARGFRAME XSTACK, 12, STACK
        ARGFRAME IOVERLAY, 0, STATIC
        ARGFRAME DOVERLAY, 0, STATIC
        REQUIRE ?V0
        REQUIRE ?V1
        REQUIRE ?V2
        REQUIRE ?V3
        MOV       A,#-0xc
        LCALL     ?BANKED_ENTER_XDATA
          CFI DPH0 load(1, XDATA, add(CFA_XSP16, literal(-1)))
          CFI DPL0 load(1, XDATA, add(CFA_XSP16, literal(-2)))
          CFI ?BRET_EXT load(1, XDATA, add(CFA_XSP16, literal(-3)))
          CFI ?RET_HIGH load(1, XDATA, add(CFA_XSP16, literal(-4)))
          CFI ?RET_LOW load(1, XDATA, add(CFA_XSP16, literal(-5)))
          CFI R7 load(1, XDATA, add(CFA_XSP16, literal(-6)))
          CFI V3 load(1, XDATA, add(CFA_XSP16, literal(-7)))
          CFI V2 load(1, XDATA, add(CFA_XSP16, literal(-8)))
          CFI V1 load(1, XDATA, add(CFA_XSP16, literal(-9)))
          CFI V0 load(1, XDATA, add(CFA_XSP16, literal(-10)))
          CFI VB load(1, XDATA, add(CFA_XSP16, literal(-11)))
          CFI R6 load(1, XDATA, add(CFA_XSP16, literal(-12)))
          CFI CFA_SP SP+0
          CFI CFA_XSP16 add(XSP16, 12)
        ; Saved register size: 12
        ; Auto size: 0
        MOV       A,R2
        MOV       R6,A
        MOV       A,R3
        MOV       R7,A
//  462   afIncomingMSGPacket_t *MSGpkt;
//  463 
//  464   (void)task_id;  // Intentionally unreferenced parameter
//  465 
//  466   if ( events & SYS_EVENT_MSG )
        ANL       A,#0x80
        JNZ       ??zclSampleLight_event_loop_0
//  467   {
//  468     while ( (MSGpkt = (afIncomingMSGPacket_t *)osal_msg_receive( zclSampleLight_TaskID )) )
//  469     {
//  470       switch ( MSGpkt->hdr.event )
//  471       {
//  472 #ifdef ZCL_EZMODE
//  473         case ZDO_CB_MSG:
//  474           // 璋璇淇℃锛跺ZDO璋娑
//  475           debug_str("ZDO CB Msg");
//  476           zclSampleLight_ProcessZDOMsgs( (zdoIncomingMsg_t *)MSGpkt );
//  477           break;
//  478 #endif
//  479         case ZCL_INCOMING_MSG:
//  480           // 璋璇淇℃锛跺ZCL娑
//  481           debug_str("ZCL Msg");
//  482           // Incoming ZCL Foundation command/response messages
//  483           zclSampleLight_ProcessIncomingMsg( (zclIncomingMsg_t *)MSGpkt );
//  484           break;
//  485 
//  486         case KEY_CHANGE:
//  487           // 璋璇淇℃锛跺版浜浠
//  488           debug_str("Key Event");
//  489           zclSampleLight_HandleKeys( ((keyChange_t *)MSGpkt)->state, ((keyChange_t *)MSGpkt)->keys );
//  490           break;
//  491 
//  492         case ZDO_STATE_CHANGE:
//  493           // 璋璇淇℃锛缃缁舵
//  494           debug_str("NWK State");
//  495           zclSampleLight_NwkState = (devStates_t)(MSGpkt->hdr.status);
//  496 
//  497           // 璋璇淇℃锛剧ず蜂缃缁舵
//  498           switch(zclSampleLight_NwkState)
//  499           {
//  500             case DEV_INIT:
//  501               debug_str("State: INIT");
//  502               break;
//  503             case DEV_NWK_DISC:
//  504               debug_str("State: DISC");
//  505               break;
//  506             case DEV_NWK_JOINING:
//  507               debug_str("State: JOIN");
//  508               break;
//  509             case DEV_END_DEVICE:
//  510               debug_str("State: END");
//  511               break;
//  512             case DEV_ROUTER:
//  513               debug_str("State: ROUTER");
//  514               break;
//  515             case DEV_ZB_COORD:
//  516               debug_str("State: COORD");
//  517               break;
//  518             case DEV_NWK_ORPHAN:
//  519               debug_str("State: ORPHAN");
//  520               break;
//  521             case DEV_END_DEVICE_UNAUTH:
//  522               debug_str("State: UNAUTH");
//  523               break;
//  524             default:
//  525               debug_str("State: UNKNOWN");
//  526               break;
//  527           }
//  528 
//  529           // now on the network
//  530           if ( (zclSampleLight_NwkState == DEV_ZB_COORD) ||
//  531                (zclSampleLight_NwkState == DEV_ROUTER)   ||
//  532                (zclSampleLight_NwkState == DEV_END_DEVICE) )
//  533           {
//  534             // 璋璇淇℃锛ョ缁
//  535             debug_str("Network OK");
//  536             
//  537             giLightScreenMode = LIGHT_MAINMODE;
//  538             zclSampleLight_LcdDisplayUpdate();
//  539 #ifdef ZCL_EZMODE
//  540             zcl_EZModeAction( EZMODE_ACTION_NETWORK_STARTED, NULL );
//  541 #endif // ZCL_EZMODE
//  542           }
//  543           else if (zclSampleLight_NwkState == DEV_NWK_JOINING)
//  544           {
//  545             // 璋璇淇℃锛姝ｅㄥョ缁
//  546             debug_str("Joining...");
//  547           }
//  548           else if (zclSampleLight_NwkState == DEV_NWK_DISC)
//  549           {
//  550             // 璋璇淇℃锛姝ｅㄥ扮缁
//  551             debug_str("Discovering");
//  552           }
//  553           else if (zclSampleLight_NwkState == DEV_END_DEVICE_UNAUTH)
//  554           {
//  555             // 璋璇淇℃锛舵
//  556             HalLcdWriteString("Unauthorized", HAL_LCD_LINE_3);
//  557           }
//  558           break;
//  559 
//  560         default:
//  561           break;
//  562       }
//  563 
//  564       // Release the memory
//  565       osal_msg_deallocate( (uint8 *)MSGpkt );
//  566     }
//  567 
//  568     // return unprocessed events
//  569     return (events ^ SYS_EVENT_MSG);
//  570   }
//  571 
//  572   if ( events & SAMPLELIGHT_IDENTIFY_TIMEOUT_EVT )
        MOV       A,R6
        MOV       C,0xE0 /* A   */.0
        JC        $+5
        LJMP      ??zclSampleLight_event_loop_1 & 0xFFFF
//  573   {
//  574     // 璋璇淇℃锛璇瓒朵浠
//  575     debug_str("ID Timeout");
        ; Setup parameters for call to function debug_str
        MOV       R2,#`?<Constant "ID Timeout">` & 0xff
        MOV       R3,#(`?<Constant "ID Timeout">` >> 8) & 0xff
        LCALL     `??debug_str::?relay`; Banked call to: debug_str
//  576     if ( zclSampleLight_IdentifyTime > 0 )
        LCALL     ?Subroutine6 & 0xFFFF
??CrossCallReturnLabel_6:
        MOV       A,R0
        ORL       A,R1
        JZ        ??zclSampleLight_event_loop_2
//  577       zclSampleLight_IdentifyTime--;
        MOV       DPTR,#zclSampleLight_IdentifyTime
        MOVX      A,@DPTR
        ADD       A,#-0x1
        MOVX      @DPTR,A
        INC       DPTR
        MOVX      A,@DPTR
        ADDC      A,#-0x1
        MOVX      @DPTR,A
//  578     zclSampleLight_ProcessIdentifyTimeChange();
??zclSampleLight_event_loop_2:
        ; Setup parameters for call to function zclSampleLight_ProcessIdentifyTimeChange
        LCALL     `??zclSampleLight_ProcessIdentifyTimeChange::?re`; Banked call to: zclSampleLight_ProcessIdentifyTimeChange
//  579 
//  580     return ( events ^ SAMPLELIGHT_IDENTIFY_TIMEOUT_EVT );
        MOV       A,R6
        XRL       A,#0x1
        LJMP      ??zclSampleLight_event_loop_3 & 0xFFFF
//  581   }
??zclSampleLight_event_loop_4:
        MOVX      A,@DPTR
        XRL       A,#0x5
        JNZ       ??zclSampleLight_event_loop_5
        ; Setup parameters for call to function HalLcdWriteString
        MOV       R1,#0x3
        MOV       R2,#`?<Constant "Unauthorized">` & 0xff
        MOV       R3,#(`?<Constant "Unauthorized">` >> 8) & 0xff
        LCALL     `??HalLcdWriteString::?relay`; Banked call to: HalLcdWriteString
??zclSampleLight_event_loop_5:
        ; Setup parameters for call to function osal_msg_deallocate
        MOV       R2,?V0
        MOV       R3,?V1
        LCALL     `??osal_msg_deallocate::?relay`; Banked call to: osal_msg_deallocate
??zclSampleLight_event_loop_0:
        ; Setup parameters for call to function osal_msg_receive
        MOV       DPTR,#zclSampleLight_TaskID
        MOVX      A,@DPTR
        MOV       R1,A
        LCALL     `??osal_msg_receive::?relay`; Banked call to: osal_msg_receive
        MOV       ?V0,R2
        MOV       ?V1,R3
        MOV       A,R2
        ORL       A,?V1
        JNZ       $+5
        LJMP      ??zclSampleLight_event_loop_6 & 0xFFFF
        MOV       DPL,R2
        MOV       DPH,R3
        MOVX      A,@DPTR
        ADD       A,#-0x34
        JZ        ??zclSampleLight_event_loop_7
        ADD       A,#0x74
        JZ        ??zclSampleLight_event_loop_8
        ADD       A,#-0x11
        JZ        ??zclSampleLight_event_loop_9
        SJMP      ??zclSampleLight_event_loop_5
??zclSampleLight_event_loop_7:
        ; Setup parameters for call to function debug_str
        MOV       R2,#`?<Constant "ZCL Msg">` & 0xff
        MOV       R3,#(`?<Constant "ZCL Msg">` >> 8) & 0xff
        LCALL     `??debug_str::?relay`; Banked call to: debug_str
        ; Setup parameters for call to function zclSampleLight_ProcessIncomingMsg
        MOV       R2,?V0
        MOV       R3,?V1
        LCALL     `??zclSampleLight_ProcessIncomingMsg::?relay`; Banked call to: zclSampleLight_ProcessIncomingMsg
        SJMP      ??zclSampleLight_event_loop_5
??zclSampleLight_event_loop_8:
        ; Setup parameters for call to function debug_str
        MOV       R2,#`?<Constant "Key Event">` & 0xff
        MOV       R3,#(`?<Constant "Key Event">` >> 8) & 0xff
        LCALL     `??debug_str::?relay`; Banked call to: debug_str
        ; Setup parameters for call to function zclSampleLight_HandleKeys
        MOV       DPL,?V0
        MOV       DPH,?V1
        INC       DPTR
        INC       DPTR
        INC       DPTR
        MOVX      A,@DPTR
        MOV       R2,A
        MOV       DPL,?V0
        MOV       DPH,?V1
        INC       DPTR
        INC       DPTR
        MOVX      A,@DPTR
        MOV       R1,A
        LCALL     `??zclSampleLight_HandleKeys::?relay`; Banked call to: zclSampleLight_HandleKeys
        SJMP      ??zclSampleLight_event_loop_5
??zclSampleLight_event_loop_9:
        ; Setup parameters for call to function debug_str
        MOV       R2,#`?<Constant "NWK State">` & 0xff
        MOV       R3,#(`?<Constant "NWK State">` >> 8) & 0xff
        LCALL     `??debug_str::?relay`; Banked call to: debug_str
        MOV       DPL,?V0
        MOV       DPH,?V1
        INC       DPTR
        MOVX      A,@DPTR
        MOV       DPTR,#zclSampleLight_NwkState
        MOVX      @DPTR,A
        DEC       A
        JZ        ??zclSampleLight_event_loop_10
        DEC       A
        JZ        ??zclSampleLight_event_loop_11
        DEC       A
        JZ        ??zclSampleLight_event_loop_12
        ADD       A,#-0x2
        JZ        ??zclSampleLight_event_loop_13
        DEC       A
        JZ        ??zclSampleLight_event_loop_14
        DEC       A
        JZ        ??zclSampleLight_event_loop_15
        ADD       A,#-0x2
        JZ        ??zclSampleLight_event_loop_16
        DEC       A
        JZ        ??zclSampleLight_event_loop_17
        SJMP      ??zclSampleLight_event_loop_18
??zclSampleLight_event_loop_10:
        ; Setup parameters for call to function debug_str
        MOV       R2,#`?<Constant "State: INIT">` & 0xff
        MOV       R3,#(`?<Constant "State: INIT">` >> 8) & 0xff
        SJMP      ??zclSampleLight_event_loop_19
??zclSampleLight_event_loop_11:
        ; Setup parameters for call to function debug_str
        MOV       R2,#`?<Constant "State: DISC">` & 0xff
        MOV       R3,#(`?<Constant "State: DISC">` >> 8) & 0xff
        SJMP      ??zclSampleLight_event_loop_19
??zclSampleLight_event_loop_12:
        ; Setup parameters for call to function debug_str
        MOV       R2,#`?<Constant "State: JOIN">` & 0xff
        MOV       R3,#(`?<Constant "State: JOIN">` >> 8) & 0xff
        SJMP      ??zclSampleLight_event_loop_19
??zclSampleLight_event_loop_14:
        ; Setup parameters for call to function debug_str
        MOV       R2,#`?<Constant "State: END">` & 0xff
        MOV       R3,#(`?<Constant "State: END">` >> 8) & 0xff
        SJMP      ??zclSampleLight_event_loop_19
??zclSampleLight_event_loop_15:
        ; Setup parameters for call to function debug_str
        MOV       R2,#`?<Constant "State: ROUTER">` & 0xff
        MOV       R3,#(`?<Constant "State: ROUTER">` >> 8) & 0xff
        SJMP      ??zclSampleLight_event_loop_19
??zclSampleLight_event_loop_16:
        ; Setup parameters for call to function debug_str
        MOV       R2,#`?<Constant "State: COORD">` & 0xff
        MOV       R3,#(`?<Constant "State: COORD">` >> 8) & 0xff
        SJMP      ??zclSampleLight_event_loop_19
??zclSampleLight_event_loop_17:
        ; Setup parameters for call to function debug_str
        MOV       R2,#`?<Constant "State: ORPHAN">` & 0xff
        MOV       R3,#(`?<Constant "State: ORPHAN">` >> 8) & 0xff
        SJMP      ??zclSampleLight_event_loop_19
??zclSampleLight_event_loop_13:
        ; Setup parameters for call to function debug_str
        MOV       R2,#`?<Constant "State: UNAUTH">` & 0xff
        MOV       R3,#(`?<Constant "State: UNAUTH">` >> 8) & 0xff
        SJMP      ??zclSampleLight_event_loop_19
??zclSampleLight_event_loop_18:
        ; Setup parameters for call to function debug_str
        MOV       R2,#`?<Constant "State: UNKNOWN">` & 0xff
        MOV       R3,#(`?<Constant "State: UNKNOWN">` >> 8) & 0xff
??zclSampleLight_event_loop_19:
        LCALL     `??debug_str::?relay`; Banked call to: debug_str
        MOV       DPTR,#zclSampleLight_NwkState
        MOVX      A,@DPTR
        XRL       A,#0x9
        JZ        ??zclSampleLight_event_loop_20
        MOVX      A,@DPTR
        XRL       A,#0x7
        JZ        ??zclSampleLight_event_loop_20
        MOVX      A,@DPTR
        XRL       A,#0x6
        JNZ       ??zclSampleLight_event_loop_21
??zclSampleLight_event_loop_20:
        ; Setup parameters for call to function debug_str
        MOV       R2,#`?<Constant "Network OK">` & 0xff
        MOV       R3,#(`?<Constant "Network OK">` >> 8) & 0xff
        LCALL     `??debug_str::?relay`; Banked call to: debug_str
        MOV       DPTR,#giLightScreenMode
        CLR       A
        MOVX      @DPTR,A
        ; Setup parameters for call to function zclSampleLight_LcdDisplayUpdate
        LCALL     `??zclSampleLight_LcdDisplayUpdate::?relay`; Banked call to: zclSampleLight_LcdDisplayUpdate
        LJMP      ??zclSampleLight_event_loop_5 & 0xFFFF
??zclSampleLight_event_loop_21:
        MOVX      A,@DPTR
        XRL       A,#0x3
        JNZ       ??zclSampleLight_event_loop_22
        ; Setup parameters for call to function debug_str
        MOV       R2,#`?<Constant "Joining...">` & 0xff
        MOV       R3,#(`?<Constant "Joining...">` >> 8) & 0xff
??zclSampleLight_event_loop_23:
        LCALL     `??debug_str::?relay`; Banked call to: debug_str
        LJMP      ??zclSampleLight_event_loop_5 & 0xFFFF
??zclSampleLight_event_loop_22:
        MOVX      A,@DPTR
        XRL       A,#0x2
        JZ        $+5
        LJMP      ??zclSampleLight_event_loop_4 & 0xFFFF
        ; Setup parameters for call to function debug_str
        MOV       R2,#`?<Constant "Discovering">` & 0xff
        MOV       R3,#(`?<Constant "Discovering">` >> 8) & 0xff
        SJMP      ??zclSampleLight_event_loop_23
??zclSampleLight_event_loop_6:
        MOV       A,R6
        MOV       R2,A
        MOV       A,R7
        XRL       A,#0x80
        SJMP      ??zclSampleLight_event_loop_24
//  582 
//  583   if ( events & SAMPLELIGHT_MAIN_SCREEN_EVT )
??zclSampleLight_event_loop_1:
        ANL       A,#0x10
        JZ        ??zclSampleLight_event_loop_25
//  584   {
//  585     // 璋璇淇℃锛涓诲骞浜浠
//  586     debug_str("Main Screen");
        ; Setup parameters for call to function debug_str
        MOV       R2,#`?<Constant "Main Screen">` & 0xff
        MOV       R3,#(`?<Constant "Main Screen">` >> 8) & 0xff
        LCALL     `??debug_str::?relay`; Banked call to: debug_str
//  587     giLightScreenMode = LIGHT_MAINMODE;
        MOV       DPTR,#giLightScreenMode
        CLR       A
        MOVX      @DPTR,A
//  588     zclSampleLight_LcdDisplayUpdate();
        ; Setup parameters for call to function zclSampleLight_LcdDisplayUpdate
        LCALL     `??zclSampleLight_LcdDisplayUpdate::?relay`; Banked call to: zclSampleLight_LcdDisplayUpdate
//  589 
//  590     return ( events ^ SAMPLELIGHT_MAIN_SCREEN_EVT );
        MOV       A,R6
        XRL       A,#0x10
??zclSampleLight_event_loop_3:
        MOV       R2,A
        MOV       A,R7
??zclSampleLight_event_loop_24:
        MOV       R3,A
        SJMP      ??zclSampleLight_event_loop_26
//  591   }
//  592 
//  593 #ifdef ZCL_EZMODE
//  594 #if (defined HAL_BOARD_ZLIGHT)
//  595   // event to start EZMode on startup with a delay
//  596   if ( events & SAMPLELIGHT_START_EZMODE_EVT )
//  597   {
//  598     // 璋璇淇℃锛EZ-Mode浜浠
//  599     debug_str("Start EZMode");
//  600     // Invoke EZ-Mode
//  601     zclEZMode_InvokeData_t ezModeData;
//  602 
//  603     // Invoke EZ-Mode
//  604     ezModeData.endpoint = SAMPLELIGHT_ENDPOINT; // endpoint on which to invoke EZ-Mode
//  605     if ( (zclSampleLight_NwkState == DEV_ZB_COORD) ||
//  606          (zclSampleLight_NwkState == DEV_ROUTER)   ||
//  607          (zclSampleLight_NwkState == DEV_END_DEVICE) )
//  608     {
//  609       ezModeData.onNetwork = TRUE;      // node is already on the network
//  610     }
//  611     else
//  612     {
//  613       ezModeData.onNetwork = FALSE;     // node is not yet on the network
//  614     }
//  615     ezModeData.initiator = FALSE;          // OnOffLight is a target
//  616     ezModeData.numActiveOutClusters = 0;
//  617     ezModeData.pActiveOutClusterIDs = NULL;
//  618     ezModeData.numActiveInClusters = 0;
//  619     ezModeData.pActiveOutClusterIDs = NULL;
//  620     zcl_InvokeEZMode( &ezModeData );
//  621 
//  622     return ( events ^ SAMPLELIGHT_START_EZMODE_EVT );
//  623   }
//  624 #endif // #if (defined HAL_BOARD_ZLIGHT)
//  625 
//  626   // going on to next state
//  627   if ( events & SAMPLELIGHT_EZMODE_NEXTSTATE_EVT )
//  628   {
//  629     // 璋璇淇℃锛EZ-Mode涓涓舵浜浠
//  630     debug_str("EZ Next");
//  631     zcl_EZModeAction ( EZMODE_ACTION_PROCESS, NULL );   // going on to next state
//  632     return ( events ^ SAMPLELIGHT_EZMODE_NEXTSTATE_EVT );
//  633   }
//  634 
//  635   // the overall EZMode timer expired, so we timed out
//  636   if ( events & SAMPLELIGHT_EZMODE_TIMEOUT_EVT )
//  637   {
//  638     // 璋璇淇℃锛EZ-Mode瓒朵浠
//  639     debug_str("EZ Timeout");
//  640     zcl_EZModeAction ( EZMODE_ACTION_TIMED_OUT, NULL ); // EZ-Mode timed out
//  641     return ( events ^ SAMPLELIGHT_EZMODE_TIMEOUT_EVT );
//  642   }
//  643 #endif // ZLC_EZMODE
//  644 
//  645 #ifdef ZCL_LEVEL_CTRL
//  646   if ( events & SAMPLELIGHT_LEVEL_CTRL_EVT )
//  647   {
//  648     // 璋璇淇℃锛璋у朵浠
//  649     debug_str("Level Ctrl");
//  650     zclSampleLight_AdjustLightLevel();
//  651     return ( events ^ SAMPLELIGHT_LEVEL_CTRL_EVT );
//  652   }
//  653 #endif
//  654 
//  655   // 瀹妫娴S1舵 - 宸叉敞锛淇浠ｇ逛究璋璇
//  656   /*
//  657   if ( events & SAMPLELIGHT_S1_CHECK_EVT )
//  658   {
//  659     // 璋璇淇℃锛S1舵妫娴
//  660     // S1浣靛钩锛涓惰0锛炬惰1
//  661     if (HAL_PUSH_BUTTON1()) {
//  662       debug_str("S1: Released (periodic)");
//  663     } else {
//  664       debug_str("S1: Pressed (periodic)");
//  665     }
//  666     // 板ㄥ跺锛姣1绉妫娴涓娆
//  667     osal_start_timerEx( zclSampleLight_TaskID, SAMPLELIGHT_S1_CHECK_EVT, 1000 );
//  668     return ( events ^ SAMPLELIGHT_S1_CHECK_EVT );
//  669   }
//  670   */
//  671 
//  672   // Discard unknown events
//  673   return 0;
??zclSampleLight_event_loop_25:
        MOV       R2,#0x0
        MOV       R3,#0x0
??zclSampleLight_event_loop_26:
        LJMP      ??Subroutine8_0 & 0xFFFF
//  674 }
          CFI EndBlock cfiBlock2

        RSEG BANKED_CODE:HUGECODE:NOROOT(0)
?Subroutine6:
          CFI Block cfiCond3 Using cfiCommon0
          CFI Function zclSampleLight_event_loop
          CFI Conditional ??CrossCallReturnLabel_6
          CFI R6 load(1, XDATA, add(CFA_XSP16, literal(-12)))
          CFI VB load(1, XDATA, add(CFA_XSP16, literal(-11)))
          CFI V0 load(1, XDATA, add(CFA_XSP16, literal(-10)))
          CFI V1 load(1, XDATA, add(CFA_XSP16, literal(-9)))
          CFI V2 load(1, XDATA, add(CFA_XSP16, literal(-8)))
          CFI V3 load(1, XDATA, add(CFA_XSP16, literal(-7)))
          CFI R7 load(1, XDATA, add(CFA_XSP16, literal(-6)))
          CFI ?RET_LOW load(1, XDATA, add(CFA_XSP16, literal(-5)))
          CFI ?RET_HIGH load(1, XDATA, add(CFA_XSP16, literal(-4)))
          CFI ?BRET_EXT load(1, XDATA, add(CFA_XSP16, literal(-3)))
          CFI DPL0 load(1, XDATA, add(CFA_XSP16, literal(-2)))
          CFI DPH0 load(1, XDATA, add(CFA_XSP16, literal(-1)))
          CFI CFA_SP SP+-2
          CFI CFA_XSP16 add(XSP16, 12)
          CFI Block cfiCond4 Using cfiCommon0
          CFI (cfiCond4) Function zclSampleLight_ProcessIdentifyTimeChange
          CFI (cfiCond4) Conditional ??CrossCallReturnLabel_7
          CFI (cfiCond4) DPL0 Frame(CFA_SP, 4)
          CFI (cfiCond4) DPH0 Frame(CFA_SP, 5)
          CFI (cfiCond4) CFA_SP SP+-7
          CFI Block cfiPicker5 Using cfiCommon1
          CFI (cfiPicker5) NoFunction
          CFI (cfiPicker5) Picker
        MOV       DPTR,#zclSampleLight_IdentifyTime
          CFI EndBlock cfiCond3
          CFI EndBlock cfiCond4
          CFI EndBlock cfiPicker5
        REQUIRE ??Subroutine7_0
        ; // Fall through to label ??Subroutine7_0

        RSEG BANKED_CODE:HUGECODE:NOROOT(0)
??Subroutine7_0:
          CFI Block cfiCond6 Using cfiCommon0
          CFI Function zclSampleLight_IdentifyCB
          CFI Conditional ??CrossCallReturnLabel_4
          CFI R6 load(1, XDATA, add(CFA_XSP16, literal(-9)))
          CFI VB load(1, XDATA, add(CFA_XSP16, literal(-8)))
          CFI V0 load(1, XDATA, add(CFA_XSP16, literal(-7)))
          CFI R7 load(1, XDATA, add(CFA_XSP16, literal(-6)))
          CFI ?RET_LOW load(1, XDATA, add(CFA_XSP16, literal(-5)))
          CFI ?RET_HIGH load(1, XDATA, add(CFA_XSP16, literal(-4)))
          CFI ?BRET_EXT load(1, XDATA, add(CFA_XSP16, literal(-3)))
          CFI DPL0 load(1, XDATA, add(CFA_XSP16, literal(-2)))
          CFI DPH0 load(1, XDATA, add(CFA_XSP16, literal(-1)))
          CFI CFA_SP SP+-2
          CFI CFA_XSP16 add(XSP16, 9)
          CFI Block cfiCond7 Using cfiCommon0
          CFI (cfiCond7) Function zclSampleLight_OnOffCB
          CFI (cfiCond7) Conditional ??CrossCallReturnLabel_5
          CFI (cfiCond7) R6 load(1, XDATA, add(CFA_XSP16, literal(-10)))
          CFI (cfiCond7) VB load(1, XDATA, add(CFA_XSP16, literal(-9)))
          CFI (cfiCond7) V0 load(1, XDATA, add(CFA_XSP16, literal(-8)))
          CFI (cfiCond7) V1 load(1, XDATA, add(CFA_XSP16, literal(-7)))
          CFI (cfiCond7) R7 load(1, XDATA, add(CFA_XSP16, literal(-6)))
          CFI (cfiCond7) ?RET_LOW load(1, XDATA, add(CFA_XSP16, literal(-5)))
          CFI (cfiCond7) ?RET_HIGH load(1, XDATA, add(CFA_XSP16, literal(-4)))
          CFI (cfiCond7) ?BRET_EXT load(1, XDATA, add(CFA_XSP16, literal(-3)))
          CFI (cfiCond7) DPL0 load(1, XDATA, add(CFA_XSP16, literal(-2)))
          CFI (cfiCond7) DPH0 load(1, XDATA, add(CFA_XSP16, literal(-1)))
          CFI (cfiCond7) CFA_SP SP+-2
          CFI (cfiCond7) CFA_XSP16 add(XSP16, 10)
          CFI Block cfiCond8 Using cfiCommon0
          CFI (cfiCond8) Function zclSampleLight_event_loop
          CFI (cfiCond8) Conditional ??CrossCallReturnLabel_6
          CFI (cfiCond8) R6 load(1, XDATA, add(CFA_XSP16, literal(-12)))
          CFI (cfiCond8) VB load(1, XDATA, add(CFA_XSP16, literal(-11)))
          CFI (cfiCond8) V0 load(1, XDATA, add(CFA_XSP16, literal(-10)))
          CFI (cfiCond8) V1 load(1, XDATA, add(CFA_XSP16, literal(-9)))
          CFI (cfiCond8) V2 load(1, XDATA, add(CFA_XSP16, literal(-8)))
          CFI (cfiCond8) V3 load(1, XDATA, add(CFA_XSP16, literal(-7)))
          CFI (cfiCond8) R7 load(1, XDATA, add(CFA_XSP16, literal(-6)))
          CFI (cfiCond8) ?RET_LOW load(1, XDATA, add(CFA_XSP16, literal(-5)))
          CFI (cfiCond8) ?RET_HIGH load(1, XDATA, add(CFA_XSP16, literal(-4)))
          CFI (cfiCond8) ?BRET_EXT load(1, XDATA, add(CFA_XSP16, literal(-3)))
          CFI (cfiCond8) DPL0 load(1, XDATA, add(CFA_XSP16, literal(-2)))
          CFI (cfiCond8) DPH0 load(1, XDATA, add(CFA_XSP16, literal(-1)))
          CFI (cfiCond8) CFA_SP SP+-2
          CFI (cfiCond8) CFA_XSP16 add(XSP16, 12)
          CFI Block cfiCond9 Using cfiCommon0
          CFI (cfiCond9) Function zclSampleLight_ProcessIdentifyTimeChange
          CFI (cfiCond9) Conditional ??CrossCallReturnLabel_7
          CFI (cfiCond9) DPL0 Frame(CFA_SP, 4)
          CFI (cfiCond9) DPH0 Frame(CFA_SP, 5)
          CFI (cfiCond9) CFA_SP SP+-7
          CFI Block cfiPicker10 Using cfiCommon1
          CFI (cfiPicker10) NoFunction
          CFI (cfiPicker10) Picker
        MOVX      A,@DPTR
        MOV       R0,A
        INC       DPTR
        MOVX      A,@DPTR
        MOV       R1,A
        RET
          CFI EndBlock cfiCond6
          CFI EndBlock cfiCond7
          CFI EndBlock cfiCond8
          CFI EndBlock cfiCond9
          CFI EndBlock cfiPicker10
//  675 
//  676 /*********************************************************************
//  677  * @fn      zclSampleLight_HandleKeys
//  678  *
//  679  * @brief   Handles all key events for this device.
//  680  *
//  681  * @param   shift - true if in shift/alt.
//  682  * @param   keys - bit field for key events. Valid entries:
//  683  *                 HAL_KEY_SW_5
//  684  *                 HAL_KEY_SW_4
//  685  *                 HAL_KEY_SW_2
//  686  *                 HAL_KEY_SW_1
//  687  *
//  688  * @return  none
//  689  */

        RSEG BANKED_CODE:HUGECODE:NOROOT(0)
//  690 static void zclSampleLight_HandleKeys( byte shift, byte keys )
zclSampleLight_HandleKeys:
          CFI Block cfiBlock11 Using cfiCommon0
          CFI Function zclSampleLight_HandleKeys
        CODE
//  691 {
        FUNCALL zclSampleLight_HandleKeys, debug_str
        LOCFRAME ISTACK, 0, STACK
        LOCFRAME PSTACK, 0, STACK
        LOCFRAME XSTACK, 21, STACK
        LOCFRAME IOVERLAY, 0, STATIC
        LOCFRAME DOVERLAY, 0, STATIC
        ARGFRAME ISTACK, 0, STACK
        ARGFRAME PSTACK, 0, STACK
        ARGFRAME XSTACK, 21, STACK
        ARGFRAME IOVERLAY, 0, STATIC
        ARGFRAME DOVERLAY, 0, STATIC
        FUNCALL zclSampleLight_HandleKeys, zclSampleLight_SendSwitchReport
        LOCFRAME ISTACK, 0, STACK
        LOCFRAME PSTACK, 0, STACK
        LOCFRAME XSTACK, 21, STACK
        LOCFRAME IOVERLAY, 0, STATIC
        LOCFRAME DOVERLAY, 0, STATIC
        ARGFRAME ISTACK, 0, STACK
        ARGFRAME PSTACK, 0, STACK
        ARGFRAME XSTACK, 21, STACK
        ARGFRAME IOVERLAY, 0, STATIC
        ARGFRAME DOVERLAY, 0, STATIC
        FUNCALL zclSampleLight_HandleKeys, debug_str
        LOCFRAME ISTACK, 0, STACK
        LOCFRAME PSTACK, 0, STACK
        LOCFRAME XSTACK, 21, STACK
        LOCFRAME IOVERLAY, 0, STATIC
        LOCFRAME DOVERLAY, 0, STATIC
        ARGFRAME ISTACK, 0, STACK
        ARGFRAME PSTACK, 0, STACK
        ARGFRAME XSTACK, 21, STACK
        ARGFRAME IOVERLAY, 0, STATIC
        ARGFRAME DOVERLAY, 0, STATIC
        FUNCALL zclSampleLight_HandleKeys, zclSampleLight_SendSwitchReport
        LOCFRAME ISTACK, 0, STACK
        LOCFRAME PSTACK, 0, STACK
        LOCFRAME XSTACK, 21, STACK
        LOCFRAME IOVERLAY, 0, STATIC
        LOCFRAME DOVERLAY, 0, STATIC
        ARGFRAME ISTACK, 0, STACK
        ARGFRAME PSTACK, 0, STACK
        ARGFRAME XSTACK, 21, STACK
        ARGFRAME IOVERLAY, 0, STATIC
        ARGFRAME DOVERLAY, 0, STATIC
        FUNCALL zclSampleLight_HandleKeys, debug_str
        LOCFRAME ISTACK, 0, STACK
        LOCFRAME PSTACK, 0, STACK
        LOCFRAME XSTACK, 21, STACK
        LOCFRAME IOVERLAY, 0, STATIC
        LOCFRAME DOVERLAY, 0, STATIC
        ARGFRAME ISTACK, 0, STACK
        ARGFRAME PSTACK, 0, STACK
        ARGFRAME XSTACK, 21, STACK
        ARGFRAME IOVERLAY, 0, STATIC
        ARGFRAME DOVERLAY, 0, STATIC
        FUNCALL zclSampleLight_HandleKeys, zclSampleLight_SendSwitchReport
        LOCFRAME ISTACK, 0, STACK
        LOCFRAME PSTACK, 0, STACK
        LOCFRAME XSTACK, 21, STACK
        LOCFRAME IOVERLAY, 0, STATIC
        LOCFRAME DOVERLAY, 0, STATIC
        ARGFRAME ISTACK, 0, STACK
        ARGFRAME PSTACK, 0, STACK
        ARGFRAME XSTACK, 21, STACK
        ARGFRAME IOVERLAY, 0, STATIC
        ARGFRAME DOVERLAY, 0, STATIC
        FUNCALL zclSampleLight_HandleKeys, debug_str
        LOCFRAME ISTACK, 0, STACK
        LOCFRAME PSTACK, 0, STACK
        LOCFRAME XSTACK, 21, STACK
        LOCFRAME IOVERLAY, 0, STATIC
        LOCFRAME DOVERLAY, 0, STATIC
        ARGFRAME ISTACK, 0, STACK
        ARGFRAME PSTACK, 0, STACK
        ARGFRAME XSTACK, 21, STACK
        ARGFRAME IOVERLAY, 0, STATIC
        ARGFRAME DOVERLAY, 0, STATIC
        FUNCALL zclSampleLight_HandleKeys, zclSampleLight_SendSwitchReport
        LOCFRAME ISTACK, 0, STACK
        LOCFRAME PSTACK, 0, STACK
        LOCFRAME XSTACK, 21, STACK
        LOCFRAME IOVERLAY, 0, STATIC
        LOCFRAME DOVERLAY, 0, STATIC
        ARGFRAME ISTACK, 0, STACK
        ARGFRAME PSTACK, 0, STACK
        ARGFRAME XSTACK, 21, STACK
        ARGFRAME IOVERLAY, 0, STATIC
        ARGFRAME DOVERLAY, 0, STATIC
        FUNCALL zclSampleLight_HandleKeys, debug_str
        LOCFRAME ISTACK, 0, STACK
        LOCFRAME PSTACK, 0, STACK
        LOCFRAME XSTACK, 21, STACK
        LOCFRAME IOVERLAY, 0, STATIC
        LOCFRAME DOVERLAY, 0, STATIC
        ARGFRAME ISTACK, 0, STACK
        ARGFRAME PSTACK, 0, STACK
        ARGFRAME XSTACK, 21, STACK
        ARGFRAME IOVERLAY, 0, STATIC
        ARGFRAME DOVERLAY, 0, STATIC
        FUNCALL zclSampleLight_HandleKeys, debug_str
        LOCFRAME ISTACK, 0, STACK
        LOCFRAME PSTACK, 0, STACK
        LOCFRAME XSTACK, 21, STACK
        LOCFRAME IOVERLAY, 0, STATIC
        LOCFRAME DOVERLAY, 0, STATIC
        ARGFRAME ISTACK, 0, STACK
        ARGFRAME PSTACK, 0, STACK
        ARGFRAME XSTACK, 21, STACK
        ARGFRAME IOVERLAY, 0, STATIC
        ARGFRAME DOVERLAY, 0, STATIC
        FUNCALL zclSampleLight_HandleKeys, HalLedSet
        LOCFRAME ISTACK, 0, STACK
        LOCFRAME PSTACK, 0, STACK
        LOCFRAME XSTACK, 21, STACK
        LOCFRAME IOVERLAY, 0, STATIC
        LOCFRAME DOVERLAY, 0, STATIC
        ARGFRAME ISTACK, 0, STACK
        ARGFRAME PSTACK, 0, STACK
        ARGFRAME XSTACK, 21, STACK
        ARGFRAME IOVERLAY, 0, STATIC
        ARGFRAME DOVERLAY, 0, STATIC
        FUNCALL zclSampleLight_HandleKeys, NLME_GetShortAddr
        LOCFRAME ISTACK, 0, STACK
        LOCFRAME PSTACK, 0, STACK
        LOCFRAME XSTACK, 21, STACK
        LOCFRAME IOVERLAY, 0, STATIC
        LOCFRAME DOVERLAY, 0, STATIC
        ARGFRAME ISTACK, 0, STACK
        ARGFRAME PSTACK, 0, STACK
        ARGFRAME XSTACK, 21, STACK
        ARGFRAME IOVERLAY, 0, STATIC
        ARGFRAME DOVERLAY, 0, STATIC
        FUNCALL zclSampleLight_HandleKeys, ZDP_EndDeviceBindReq
        LOCFRAME ISTACK, 0, STACK
        LOCFRAME PSTACK, 0, STACK
        LOCFRAME XSTACK, 30, STACK
        LOCFRAME IOVERLAY, 0, STATIC
        LOCFRAME DOVERLAY, 0, STATIC
        ARGFRAME ISTACK, 0, STACK
        ARGFRAME PSTACK, 0, STACK
        ARGFRAME XSTACK, 30, STACK
        ARGFRAME IOVERLAY, 0, STATIC
        ARGFRAME DOVERLAY, 0, STATIC
        FUNCALL zclSampleLight_HandleKeys, debug_str
        LOCFRAME ISTACK, 0, STACK
        LOCFRAME PSTACK, 0, STACK
        LOCFRAME XSTACK, 21, STACK
        LOCFRAME IOVERLAY, 0, STATIC
        LOCFRAME DOVERLAY, 0, STATIC
        ARGFRAME ISTACK, 0, STACK
        ARGFRAME PSTACK, 0, STACK
        ARGFRAME XSTACK, 21, STACK
        ARGFRAME IOVERLAY, 0, STATIC
        ARGFRAME DOVERLAY, 0, STATIC
        FUNCALL zclSampleLight_HandleKeys, NLME_GetShortAddr
        LOCFRAME ISTACK, 0, STACK
        LOCFRAME PSTACK, 0, STACK
        LOCFRAME XSTACK, 21, STACK
        LOCFRAME IOVERLAY, 0, STATIC
        LOCFRAME DOVERLAY, 0, STATIC
        ARGFRAME ISTACK, 0, STACK
        ARGFRAME PSTACK, 0, STACK
        ARGFRAME XSTACK, 21, STACK
        ARGFRAME IOVERLAY, 0, STATIC
        ARGFRAME DOVERLAY, 0, STATIC
        FUNCALL zclSampleLight_HandleKeys, NLME_SendNetworkStatus
        LOCFRAME ISTACK, 0, STACK
        LOCFRAME PSTACK, 0, STACK
        LOCFRAME XSTACK, 22, STACK
        LOCFRAME IOVERLAY, 0, STATIC
        LOCFRAME DOVERLAY, 0, STATIC
        ARGFRAME ISTACK, 0, STACK
        ARGFRAME PSTACK, 0, STACK
        ARGFRAME XSTACK, 22, STACK
        ARGFRAME IOVERLAY, 0, STATIC
        ARGFRAME DOVERLAY, 0, STATIC
        FUNCALL zclSampleLight_HandleKeys, debug_str
        LOCFRAME ISTACK, 0, STACK
        LOCFRAME PSTACK, 0, STACK
        LOCFRAME XSTACK, 21, STACK
        LOCFRAME IOVERLAY, 0, STATIC
        LOCFRAME DOVERLAY, 0, STATIC
        ARGFRAME ISTACK, 0, STACK
        ARGFRAME PSTACK, 0, STACK
        ARGFRAME XSTACK, 21, STACK
        ARGFRAME IOVERLAY, 0, STATIC
        ARGFRAME DOVERLAY, 0, STATIC
        FUNCALL zclSampleLight_HandleKeys, NLME_GetShortAddr
        LOCFRAME ISTACK, 0, STACK
        LOCFRAME PSTACK, 0, STACK
        LOCFRAME XSTACK, 21, STACK
        LOCFRAME IOVERLAY, 0, STATIC
        LOCFRAME DOVERLAY, 0, STATIC
        ARGFRAME ISTACK, 0, STACK
        ARGFRAME PSTACK, 0, STACK
        ARGFRAME XSTACK, 21, STACK
        ARGFRAME IOVERLAY, 0, STATIC
        ARGFRAME DOVERLAY, 0, STATIC
        FUNCALL zclSampleLight_HandleKeys, ZDP_MgmtPermitJoinReq
        LOCFRAME ISTACK, 0, STACK
        LOCFRAME PSTACK, 0, STACK
        LOCFRAME XSTACK, 21, STACK
        LOCFRAME IOVERLAY, 0, STATIC
        LOCFRAME DOVERLAY, 0, STATIC
        ARGFRAME ISTACK, 0, STACK
        ARGFRAME PSTACK, 0, STACK
        ARGFRAME XSTACK, 21, STACK
        ARGFRAME IOVERLAY, 0, STATIC
        ARGFRAME DOVERLAY, 0, STATIC
        FUNCALL zclSampleLight_HandleKeys, debug_str
        LOCFRAME ISTACK, 0, STACK
        LOCFRAME PSTACK, 0, STACK
        LOCFRAME XSTACK, 21, STACK
        LOCFRAME IOVERLAY, 0, STATIC
        LOCFRAME DOVERLAY, 0, STATIC
        ARGFRAME ISTACK, 0, STACK
        ARGFRAME PSTACK, 0, STACK
        ARGFRAME XSTACK, 21, STACK
        ARGFRAME IOVERLAY, 0, STATIC
        ARGFRAME DOVERLAY, 0, STATIC
        FUNCALL zclSampleLight_HandleKeys, zclSampleLight_BasicResetCB
        LOCFRAME ISTACK, 0, STACK
        LOCFRAME PSTACK, 0, STACK
        LOCFRAME XSTACK, 21, STACK
        LOCFRAME IOVERLAY, 0, STATIC
        LOCFRAME DOVERLAY, 0, STATIC
        ARGFRAME ISTACK, 0, STACK
        ARGFRAME PSTACK, 0, STACK
        ARGFRAME XSTACK, 21, STACK
        ARGFRAME IOVERLAY, 0, STATIC
        ARGFRAME DOVERLAY, 0, STATIC
        FUNCALL zclSampleLight_HandleKeys, debug_str
        LOCFRAME ISTACK, 0, STACK
        LOCFRAME PSTACK, 0, STACK
        LOCFRAME XSTACK, 21, STACK
        LOCFRAME IOVERLAY, 0, STATIC
        LOCFRAME DOVERLAY, 0, STATIC
        ARGFRAME ISTACK, 0, STACK
        ARGFRAME PSTACK, 0, STACK
        ARGFRAME XSTACK, 21, STACK
        ARGFRAME IOVERLAY, 0, STATIC
        ARGFRAME DOVERLAY, 0, STATIC
        FUNCALL zclSampleLight_HandleKeys, zclSampleLight_LcdDisplayUpdate
        LOCFRAME ISTACK, 0, STACK
        LOCFRAME PSTACK, 0, STACK
        LOCFRAME XSTACK, 21, STACK
        LOCFRAME IOVERLAY, 0, STATIC
        LOCFRAME DOVERLAY, 0, STATIC
        ARGFRAME ISTACK, 0, STACK
        ARGFRAME PSTACK, 0, STACK
        ARGFRAME XSTACK, 21, STACK
        ARGFRAME IOVERLAY, 0, STATIC
        ARGFRAME DOVERLAY, 0, STATIC
        REQUIRE ?V0
        REQUIRE ?V1
        REQUIRE ?V2
        REQUIRE ?V3
        MOV       A,#-0xc
        LCALL     ?BANKED_ENTER_XDATA
          CFI DPH0 load(1, XDATA, add(CFA_XSP16, literal(-1)))
          CFI DPL0 load(1, XDATA, add(CFA_XSP16, literal(-2)))
          CFI ?BRET_EXT load(1, XDATA, add(CFA_XSP16, literal(-3)))
          CFI ?RET_HIGH load(1, XDATA, add(CFA_XSP16, literal(-4)))
          CFI ?RET_LOW load(1, XDATA, add(CFA_XSP16, literal(-5)))
          CFI R7 load(1, XDATA, add(CFA_XSP16, literal(-6)))
          CFI V3 load(1, XDATA, add(CFA_XSP16, literal(-7)))
          CFI V2 load(1, XDATA, add(CFA_XSP16, literal(-8)))
          CFI V1 load(1, XDATA, add(CFA_XSP16, literal(-9)))
          CFI V0 load(1, XDATA, add(CFA_XSP16, literal(-10)))
          CFI VB load(1, XDATA, add(CFA_XSP16, literal(-11)))
          CFI R6 load(1, XDATA, add(CFA_XSP16, literal(-12)))
          CFI CFA_SP SP+0
          CFI CFA_XSP16 add(XSP16, 12)
        ; Saved register size: 12
        ; Auto size: 9
        MOV       A,#-0x9
        LCALL     ?ALLOC_XSTACK8
          CFI CFA_XSP16 add(XSP16, 21)
        MOV       A,R1
        MOV       R7,A
        MOV       ?V0,R2
//  692   // 妫娴S2舵
//  693   static uint8 lastS2State = 0;
//  694   uint8 currentS2State = (keys & HAL_KEY_SW_7) ? 1 : 0;
        MOV       A,R2
        MOV       C,0xE0 /* A   */.6
        JNC       ??zclSampleLight_HandleKeys_0
        SETB      B.0
        SJMP      ??zclSampleLight_HandleKeys_1
??zclSampleLight_HandleKeys_0:
        CLR       B.0
??zclSampleLight_HandleKeys_1:
        MOV       C,B.0
        CLR       A
        RLC       A
        MOV       R6,A
//  695   
//  696   if (currentS2State != lastS2State) {
        MOV       DPTR,#??lastS2State
        MOVX      A,@DPTR
        XRL       A,R6
        JZ        ??zclSampleLight_HandleKeys_2
//  697     if (currentS2State) {
        MOV       A,R6
        MOV       C,0xE0 /* A   */.0
        JNC       ??zclSampleLight_HandleKeys_3
//  698       debug_str("S2: Pressed!\n");
        ; Setup parameters for call to function debug_str
        MOV       R2,#`?<Constant "S2: Pressed!\\n">` & 0xff
        MOV       R3,#(`?<Constant "S2: Pressed!\\n">` >> 8) & 0xff
        LCALL     `??debug_str::?relay`; Banked call to: debug_str
//  699       // S2涓ュ
//  700       zclSampleLight_SendSwitchReport(SAMPLELIGHT_SWITCH1_ENDPOINT, LIGHT_ON);
        ; Setup parameters for call to function zclSampleLight_SendSwitchReport
        MOV       R2,#0x1
        SJMP      ??zclSampleLight_HandleKeys_4
//  701     } else {
//  702       debug_str("S2: Released!\n");
??zclSampleLight_HandleKeys_3:
        ; Setup parameters for call to function debug_str
        MOV       R2,#`?<Constant "S2: Released!\\n">` & 0xff
        MOV       R3,#(`?<Constant "S2: Released!\\n">` >> 8) & 0xff
        LCALL     `??debug_str::?relay`; Banked call to: debug_str
//  703       // S2惧ュ
//  704       zclSampleLight_SendSwitchReport(SAMPLELIGHT_SWITCH1_ENDPOINT, LIGHT_OFF);
        ; Setup parameters for call to function zclSampleLight_SendSwitchReport
        MOV       R2,#0x0
??zclSampleLight_HandleKeys_4:
        MOV       R1,#0xa
        LCALL     `??zclSampleLight_SendSwitchReport::?relay`; Banked call to: zclSampleLight_SendSwitchReport
//  705     }
//  706     lastS2State = currentS2State;
        MOV       A,R6
        MOV       DPTR,#??lastS2State
        MOVX      @DPTR,A
//  707   }
//  708   
//  709   // 妫娴S3舵
//  710   static uint8 lastS3State = 0;
//  711   uint8 currentS3State = (keys & HAL_KEY_SW_8) ? 1 : 0;
??zclSampleLight_HandleKeys_2:
        MOV       A,?V0
        MOV       C,0xE0 /* A   */.7
        CLR       A
        RLC       A
        MOV       R6,A
//  712   
//  713   if (currentS3State != lastS3State) {
        MOV       DPTR,#??lastS3State
        MOVX      A,@DPTR
        XRL       A,R6
        JZ        ??zclSampleLight_HandleKeys_5
//  714     if (currentS3State) {
        MOV       A,R6
        MOV       C,0xE0 /* A   */.0
        JNC       ??zclSampleLight_HandleKeys_6
//  715       debug_str("S3: Pressed!\n");
        ; Setup parameters for call to function debug_str
        MOV       R2,#`?<Constant "S3: Pressed!\\n">` & 0xff
        MOV       R3,#(`?<Constant "S3: Pressed!\\n">` >> 8) & 0xff
        LCALL     `??debug_str::?relay`; Banked call to: debug_str
//  716       // S3涓ュ
//  717       zclSampleLight_SendSwitchReport(SAMPLELIGHT_SWITCH2_ENDPOINT, LIGHT_ON);
        ; Setup parameters for call to function zclSampleLight_SendSwitchReport
        MOV       R2,#0x1
        SJMP      ??zclSampleLight_HandleKeys_7
//  718     } else {
//  719       debug_str("S3: Released!\n");
??zclSampleLight_HandleKeys_6:
        ; Setup parameters for call to function debug_str
        MOV       R2,#`?<Constant "S3: Released!\\n">` & 0xff
        MOV       R3,#(`?<Constant "S3: Released!\\n">` >> 8) & 0xff
        LCALL     `??debug_str::?relay`; Banked call to: debug_str
//  720       // S3惧ュ
//  721       zclSampleLight_SendSwitchReport(SAMPLELIGHT_SWITCH2_ENDPOINT, LIGHT_OFF);
        ; Setup parameters for call to function zclSampleLight_SendSwitchReport
        MOV       R2,#0x0
??zclSampleLight_HandleKeys_7:
        MOV       R1,#0xb
        LCALL     `??zclSampleLight_SendSwitchReport::?relay`; Banked call to: zclSampleLight_SendSwitchReport
//  722     }
//  723     lastS3State = currentS3State;
        MOV       A,R6
        MOV       DPTR,#??lastS3State
        MOVX      @DPTR,A
//  724   }
//  725   
//  726   if ( keys & HAL_KEY_SW_1 )
??zclSampleLight_HandleKeys_5:
        MOV       A,?V0
        MOV       C,0xE0 /* A   */.0
        JNC       ??zclSampleLight_HandleKeys_8
//  727   {
//  728     // 璋璇淇℃锛SW1 - ㈢
//  729     debug_str("SW1: Toggle");
        ; Setup parameters for call to function debug_str
        MOV       R2,#`?<Constant "SW1: Toggle">` & 0xff
        MOV       R3,#(`?<Constant "SW1: Toggle">` >> 8) & 0xff
        LCALL     `??debug_str::?relay`; Banked call to: debug_str
//  730     
//  731     giLightScreenMode = LIGHT_MAINMODE;
        MOV       DPTR,#giLightScreenMode
        CLR       A
        MOVX      @DPTR,A
//  732 
//  733     // toggle local light immediately
//  734     zclSampleLight_OnOff = zclSampleLight_OnOff ? LIGHT_OFF : LIGHT_ON;
        MOV       DPTR,#zclSampleLight_OnOff
        MOVX      A,@DPTR
        JZ        ??zclSampleLight_HandleKeys_9
        CLR       A
        SJMP      ??zclSampleLight_HandleKeys_10
??zclSampleLight_HandleKeys_9:
        MOV       A,#0x1
??zclSampleLight_HandleKeys_10:
        MOVX      @DPTR,A
//  735 #ifdef ZCL_LEVEL_CTRL
//  736     zclSampleLight_LevelCurrentLevel = zclSampleLight_OnOff ? zclSampleLight_LevelOnLevel : ATTR_LEVEL_MIN_LEVEL;
//  737 #endif
//  738   }
//  739 
//  740   if ( keys & HAL_KEY_SW_2 )
??zclSampleLight_HandleKeys_8:
        MOV       A,?V0
        MOV       C,0xE0 /* A   */.1
        JNC       ??zclSampleLight_HandleKeys_11
//  741   {
//  742     // 璋璇淇℃锛SW2 - 缁瀹璇锋
//  743     debug_str("SW2: Bind");
        ; Setup parameters for call to function debug_str
        MOV       R2,#`?<Constant "SW2: Bind">` & 0xff
        MOV       R3,#(`?<Constant "SW2: Bind">` >> 8) & 0xff
        LCALL     `??debug_str::?relay`; Banked call to: debug_str
//  744     
//  745 #if (defined HAL_BOARD_ZLIGHT)
//  746 
//  747     zclSampleLight_BasicResetCB();
//  748 
//  749 #else
//  750 
//  751     giLightScreenMode = LIGHT_MAINMODE;
        MOV       DPTR,#giLightScreenMode
        CLR       A
        MOVX      @DPTR,A
//  752 
//  753 #ifdef ZCL_EZMODE
//  754     {
//  755       // Invoke EZ-Mode
//  756       zclEZMode_InvokeData_t ezModeData;
//  757 
//  758       // Invoke EZ-Mode
//  759       ezModeData.endpoint = SAMPLELIGHT_ENDPOINT; // endpoint on which to invoke EZ-Mode
//  760       if ( (zclSampleLight_NwkState == DEV_ZB_COORD) ||
//  761           (zclSampleLight_NwkState == DEV_ROUTER)   ||
//  762             (zclSampleLight_NwkState == DEV_END_DEVICE) )
//  763       {
//  764         ezModeData.onNetwork = TRUE;      // node is already on the network
//  765       }
//  766       else
//  767       {
//  768         ezModeData.onNetwork = FALSE;     // node is not yet on the network
//  769       }
//  770       ezModeData.initiator = FALSE;          // OnOffLight is a target
//  771       ezModeData.numActiveOutClusters = 0;
//  772       ezModeData.pActiveOutClusterIDs = NULL;
//  773       ezModeData.numActiveInClusters = 0;
//  774       ezModeData.pActiveOutClusterIDs = NULL;
//  775       zcl_InvokeEZMode( &ezModeData );
//  776     }
//  777 
//  778 #else // NOT EZ-Mode
//  779     {
//  780       zAddrType_t dstAddr;
//  781       HalLedSet ( HAL_LED_4, HAL_LED_MODE_OFF );
        ; Setup parameters for call to function HalLedSet
        MOV       R2,A
        MOV       R1,#0x8
        LCALL     `??HalLedSet::?relay`; Banked call to: HalLedSet
//  782 
//  783       // Initiate an End Device Bind Request, this bind request will
//  784       // only use a cluster list that is important to binding.
//  785       dstAddr.addrMode = afAddr16Bit;
        MOV       A,#0x8
        LCALL     ?XSTACK_DISP0_8
        MOV       A,#0x2
        MOVX      @DPTR,A
//  786       dstAddr.addr.shortAddr = 0;   // Coordinator makes the match
        MOV       DPL,?XSP + 0
        MOV       DPH,?XSP + 1
        CLR       A
        MOVX      @DPTR,A
        INC       DPTR
        MOVX      @DPTR,A
//  787       ZDP_EndDeviceBindReq( &dstAddr, NLME_GetShortAddr(),
//  788                            SAMPLELIGHT_ENDPOINT,
//  789                            ZCL_HA_PROFILE_ID,
//  790                            ZCLSAMPLELIGHT_BINDINGLIST, bindingInClusters,
//  791                            0, NULL,   // No Outgoing clusters to bind
//  792                            TRUE );
        ; Setup parameters for call to function NLME_GetShortAddr
        LCALL     `??NLME_GetShortAddr::?relay`; Banked call to: NLME_GetShortAddr
        MOV       ?V2,R2
        MOV       ?V3,R3
        MOV       R4,?V2
        MOV       R5,?V3
        ; Setup parameters for call to function ZDP_EndDeviceBindReq
        MOV       ?V1,#0x1
        MOV       R0,#?V1
        LCALL     ?PUSH_XSTACK_I_ONE
          CFI CFA_XSP16 add(XSP16, 22)
        CLR       A
        MOV       ?V2,A
        MOV       ?V3,A
        MOV       R0,#?V2
        LCALL     ?PUSH_XSTACK_I_TWO
          CFI CFA_XSP16 add(XSP16, 24)
        MOV       ?V1,#0x0
        MOV       R0,#?V1
        LCALL     ?PUSH_XSTACK_I_ONE
          CFI CFA_XSP16 add(XSP16, 25)
        MOV       ?V2,#bindingInClusters & 0xff
        MOV       ?V3,#(bindingInClusters >> 8) & 0xff
        MOV       R0,#?V2
        LCALL     ?PUSH_XSTACK_I_TWO
          CFI CFA_XSP16 add(XSP16, 27)
        MOV       ?V1,#0x1
        MOV       R0,#?V1
        LCALL     ?PUSH_XSTACK_I_ONE
          CFI CFA_XSP16 add(XSP16, 28)
        MOV       ?V2,#0x4
        MOV       ?V3,#0x1
        MOV       R0,#?V2
        LCALL     ?PUSH_XSTACK_I_TWO
          CFI CFA_XSP16 add(XSP16, 30)
        MOV       R1,#0x8
        MOV       A,#0x9
        LCALL     ?XSTACK_DISP101_8
        LCALL     `??ZDP_EndDeviceBindReq::?relay`; Banked call to: ZDP_EndDeviceBindReq
        MOV       A,#0x9
        LCALL     ?DEALLOC_XSTACK8
          CFI CFA_XSP16 add(XSP16, 21)
//  793     }
//  794 #endif // ZCL_EZMODE
//  795 #endif // HAL_BOARD_ZLIGHT
//  796   }
//  797 
//  798   if ( keys & HAL_KEY_SW_3 )
??zclSampleLight_HandleKeys_11:
        MOV       A,?V0
        MOV       C,0xE0 /* A   */.4
        JNC       ??zclSampleLight_HandleKeys_12
//  799   {
//  800     // 璋璇淇℃锛SW3 - 缃缁舵
//  801     debug_str("SW3: NWK Status");
        ; Setup parameters for call to function debug_str
        MOV       R2,#`?<Constant "SW3: NWK Status">` & 0xff
        MOV       R3,#(`?<Constant "SW3: NWK Status">` >> 8) & 0xff
        LCALL     `??debug_str::?relay`; Banked call to: debug_str
//  802     
//  803     NLME_SendNetworkStatus( zclSampleLight_DstAddr.addr.shortAddr,
//  804                        NLME_GetShortAddr(), NWKSTAT_NONTREE_LINK_FAILURE, FALSE );
        ; Setup parameters for call to function NLME_GetShortAddr
        LCALL     `??NLME_GetShortAddr::?relay`; Banked call to: NLME_GetShortAddr
        MOV       ?V2,R2
        MOV       ?V3,R3
        MOV       R4,?V2
        MOV       R5,?V3
        ; Setup parameters for call to function NLME_SendNetworkStatus
        MOV       ?V1,#0x0
        MOV       R0,#?V1
        LCALL     ?PUSH_XSTACK_I_ONE
          CFI CFA_XSP16 add(XSP16, 22)
        MOV       R1,#0x2
        MOV       DPTR,#zclSampleLight_DstAddr
        MOVX      A,@DPTR
        MOV       R2,A
        INC       DPTR
        MOVX      A,@DPTR
        MOV       R3,A
        LCALL     `??NLME_SendNetworkStatus::?relay`; Banked call to: NLME_SendNetworkStatus
        MOV       A,#0x1
        LCALL     ?DEALLOC_XSTACK8
          CFI CFA_XSP16 add(XSP16, 21)
//  805   }
//  806 
//  807   if ( keys & HAL_KEY_SW_4 )
??zclSampleLight_HandleKeys_12:
        MOV       A,?V0
        MOV       C,0xE0 /* A   */.3
        JNC       ??zclSampleLight_HandleKeys_13
//  808   {
//  809     // 璋璇淇℃锛SW4 - 璁稿
//  810     debug_str("SW4: Permit Join");
        ; Setup parameters for call to function debug_str
        MOV       R2,#`?<Constant "SW4: Permit Join">` & 0xff
        MOV       R3,#(`?<Constant "SW4: Permit Join">` >> 8) & 0xff
        LCALL     `??debug_str::?relay`; Banked call to: debug_str
//  811     
//  812     giLightScreenMode = LIGHT_MAINMODE;
        MOV       DPTR,#giLightScreenMode
        CLR       A
        MOVX      @DPTR,A
//  813 
//  814     if ( ( zclSampleLight_NwkState == DEV_ZB_COORD ) ||
//  815           ( zclSampleLight_NwkState == DEV_ROUTER ) )
        MOV       DPTR,#zclSampleLight_NwkState
        MOVX      A,@DPTR
        XRL       A,#0x9
        JZ        ??zclSampleLight_HandleKeys_14
        MOVX      A,@DPTR
        XRL       A,#0x7
        JNZ       ??zclSampleLight_HandleKeys_13
//  816     {
//  817       zAddrType_t tmpAddr;
//  818 
//  819       tmpAddr.addrMode = Addr16Bit;
??zclSampleLight_HandleKeys_14:
        MOV       A,#0x8
        LCALL     ?XSTACK_DISP0_8
        MOV       A,#0x2
        MOVX      @DPTR,A
//  820       tmpAddr.addr.shortAddr = NLME_GetShortAddr();
        ; Setup parameters for call to function NLME_GetShortAddr
        LCALL     `??NLME_GetShortAddr::?relay`; Banked call to: NLME_GetShortAddr
        MOV       DPL,?XSP + 0
        MOV       DPH,?XSP + 1
        MOV       A,R2
        MOVX      @DPTR,A
        INC       DPTR
        MOV       A,R3
        MOVX      @DPTR,A
//  821 
//  822       // toggle permit join
//  823       gPermitDuration = gPermitDuration ? 0 : 0xff;
        MOV       DPTR,#gPermitDuration
        MOVX      A,@DPTR
        JZ        ??zclSampleLight_HandleKeys_15
        CLR       A
        SJMP      ??zclSampleLight_HandleKeys_16
??zclSampleLight_HandleKeys_15:
        MOV       A,#-0x1
??zclSampleLight_HandleKeys_16:
        MOVX      @DPTR,A
//  824 
//  825       // Trust Center significance is always true
//  826       ZDP_MgmtPermitJoinReq( &tmpAddr, gPermitDuration, TRUE, FALSE );
        ; Setup parameters for call to function ZDP_MgmtPermitJoinReq
        MOV       R5,#0x0
        MOV       R4,#0x1
        MOVX      A,@DPTR
        MOV       R1,A
        MOV       R2,?XSP + 0
        MOV       R3,?XSP + 1
        LCALL     `??ZDP_MgmtPermitJoinReq::?relay`; Banked call to: ZDP_MgmtPermitJoinReq
//  827     }
//  828   }
//  829 
//  830   // Shift F5 does a Basic Reset (factory defaults)
//  831   if ( shift && ( keys & HAL_KEY_SW_5 ) )
??zclSampleLight_HandleKeys_13:
        MOV       A,R7
        JZ        ??zclSampleLight_HandleKeys_17
        MOV       A,?V0
        MOV       C,0xE0 /* A   */.2
        JNC       ??zclSampleLight_HandleKeys_18
//  832   {
//  833     // 璋璇淇℃锛Shift+SW5 - 烘缃
//  834     debug_str("Shift+SW5: Reset");
        ; Setup parameters for call to function debug_str
        MOV       R2,#`?<Constant "Shift+SW5: Reset">` & 0xff
        MOV       R3,#(`?<Constant "Shift+SW5: Reset">` >> 8) & 0xff
        LCALL     `??debug_str::?relay`; Banked call to: debug_str
//  835     
//  836     zclSampleLight_BasicResetCB();
        ; Setup parameters for call to function zclSampleLight_BasicResetCB
        LCALL     `??zclSampleLight_BasicResetCB::?relay`; Banked call to: zclSampleLight_BasicResetCB
        SJMP      ??zclSampleLight_HandleKeys_18
//  837   }
//  838   else if ( keys & HAL_KEY_SW_5 )
??zclSampleLight_HandleKeys_17:
        MOV       A,?V0
        MOV       C,0xE0 /* A   */.2
        JNC       ??zclSampleLight_HandleKeys_18
//  839   {
//  840     // 璋璇淇℃锛SW5 - 甯╁骞
//  841     debug_str("SW5: Help");
        ; Setup parameters for call to function debug_str
        MOV       R2,#`?<Constant "SW5: Help">` & 0xff
        MOV       R3,#(`?<Constant "SW5: Help">` >> 8) & 0xff
        LCALL     `??debug_str::?relay`; Banked call to: debug_str
//  842     
//  843     giLightScreenMode = giLightScreenMode ? LIGHT_MAINMODE : LIGHT_HELPMODE;
        MOV       DPTR,#giLightScreenMode
        MOVX      A,@DPTR
        JZ        ??zclSampleLight_HandleKeys_19
        CLR       A
        SJMP      ??zclSampleLight_HandleKeys_20
??zclSampleLight_HandleKeys_19:
        MOV       A,#0x1
??zclSampleLight_HandleKeys_20:
        MOVX      @DPTR,A
//  844   }
//  845 
//  846   // update the display, including the light
//  847   zclSampleLight_LcdDisplayUpdate();
??zclSampleLight_HandleKeys_18:
        ; Setup parameters for call to function zclSampleLight_LcdDisplayUpdate
        LCALL     `??zclSampleLight_LcdDisplayUpdate::?relay`; Banked call to: zclSampleLight_LcdDisplayUpdate
//  848 }
        MOV       A,#0x9
          CFI EndBlock cfiBlock11
        REQUIRE ?Subroutine1
        ; // Fall through to label ?Subroutine1

        RSEG BANKED_CODE:HUGECODE:NOROOT(0)
?Subroutine1:
          CFI Block cfiBlock12 Using cfiCommon0
          CFI NoFunction
          CFI CFA_SP SP+0
          CFI CFA_XSP16 add(XSP16, 21)
          CFI VB load(1, XDATA, add(CFA_XSP16, literal(-11)))
          CFI DPL0 load(1, XDATA, add(CFA_XSP16, literal(-2)))
          CFI DPH0 load(1, XDATA, add(CFA_XSP16, literal(-1)))
          CFI R6 load(1, XDATA, add(CFA_XSP16, literal(-12)))
          CFI R7 load(1, XDATA, add(CFA_XSP16, literal(-6)))
          CFI V0 load(1, XDATA, add(CFA_XSP16, literal(-10)))
          CFI V1 load(1, XDATA, add(CFA_XSP16, literal(-9)))
          CFI V2 load(1, XDATA, add(CFA_XSP16, literal(-8)))
          CFI V3 load(1, XDATA, add(CFA_XSP16, literal(-7)))
          CFI ?BRET_EXT load(1, XDATA, add(CFA_XSP16, literal(-3)))
          CFI ?RET_HIGH load(1, XDATA, add(CFA_XSP16, literal(-4)))
          CFI ?RET_LOW load(1, XDATA, add(CFA_XSP16, literal(-5)))
          CFI Invalid
        LCALL     ?DEALLOC_XSTACK8
          CFI EndBlock cfiBlock12
        REQUIRE ??Subroutine8_0
        ; // Fall through to label ??Subroutine8_0

        RSEG BANKED_CODE:HUGECODE:NOROOT(0)
??Subroutine8_0:
          CFI Block cfiBlock13 Using cfiCommon0
          CFI NoFunction
          CFI CFA_SP SP+0
          CFI CFA_XSP16 add(XSP16, 12)
          CFI VB load(1, XDATA, add(CFA_XSP16, literal(-11)))
          CFI DPL0 load(1, XDATA, add(CFA_XSP16, literal(-2)))
          CFI DPH0 load(1, XDATA, add(CFA_XSP16, literal(-1)))
          CFI R6 load(1, XDATA, add(CFA_XSP16, literal(-12)))
          CFI R7 load(1, XDATA, add(CFA_XSP16, literal(-6)))
          CFI V0 load(1, XDATA, add(CFA_XSP16, literal(-10)))
          CFI V1 load(1, XDATA, add(CFA_XSP16, literal(-9)))
          CFI V2 load(1, XDATA, add(CFA_XSP16, literal(-8)))
          CFI V3 load(1, XDATA, add(CFA_XSP16, literal(-7)))
          CFI ?BRET_EXT load(1, XDATA, add(CFA_XSP16, literal(-3)))
          CFI ?RET_HIGH load(1, XDATA, add(CFA_XSP16, literal(-4)))
          CFI ?RET_LOW load(1, XDATA, add(CFA_XSP16, literal(-5)))
        MOV       R7,#0x4
        LJMP      ?BANKED_LEAVE_XDATA
          CFI EndBlock cfiBlock13

        RSEG XDATA_Z:XDATA:NOROOT(0)
        DATA8
??lastS2State:
        DS 1
        REQUIRE __INIT_XDATA_Z

        RSEG XDATA_Z:XDATA:NOROOT(0)
        DATA8
??lastS3State:
        DS 1
        REQUIRE __INIT_XDATA_Z
//  849 
//  850 /*********************************************************************
//  851  * @fn      zclSampleLight_LcdDisplayUpdate
//  852  *
//  853  * @brief   Called to update the LCD display.
//  854  *
//  855  * @param   none
//  856  *
//  857  * @return  none
//  858  */

        RSEG BANKED_CODE:HUGECODE:NOROOT(0)
//  859 void zclSampleLight_LcdDisplayUpdate( void )
zclSampleLight_LcdDisplayUpdate:
          CFI Block cfiBlock14 Using cfiCommon0
          CFI Function zclSampleLight_LcdDisplayUpdate
        CODE
//  860 {
        FUNCALL zclSampleLight_LcdDisplayUpdate, HalLcdWriteString
        LOCFRAME ISTACK, 2, STACK
        LOCFRAME PSTACK, 0, STACK
        LOCFRAME XSTACK, 0, STACK
        LOCFRAME IOVERLAY, 0, STATIC
        LOCFRAME DOVERLAY, 0, STATIC
        ARGFRAME ISTACK, 2, STACK
        ARGFRAME PSTACK, 0, STACK
        ARGFRAME XSTACK, 0, STACK
        ARGFRAME IOVERLAY, 0, STATIC
        ARGFRAME DOVERLAY, 0, STATIC
        FUNCALL zclSampleLight_LcdDisplayUpdate, HalLcdWriteString
        LOCFRAME ISTACK, 2, STACK
        LOCFRAME PSTACK, 0, STACK
        LOCFRAME XSTACK, 0, STACK
        LOCFRAME IOVERLAY, 0, STATIC
        LOCFRAME DOVERLAY, 0, STATIC
        ARGFRAME ISTACK, 2, STACK
        ARGFRAME PSTACK, 0, STACK
        ARGFRAME XSTACK, 0, STACK
        ARGFRAME IOVERLAY, 0, STATIC
        ARGFRAME DOVERLAY, 0, STATIC
        FUNCALL zclSampleLight_LcdDisplayUpdate, HalLcdWriteString
        LOCFRAME ISTACK, 2, STACK
        LOCFRAME PSTACK, 0, STACK
        LOCFRAME XSTACK, 0, STACK
        LOCFRAME IOVERLAY, 0, STATIC
        LOCFRAME DOVERLAY, 0, STATIC
        ARGFRAME ISTACK, 2, STACK
        ARGFRAME PSTACK, 0, STACK
        ARGFRAME XSTACK, 0, STACK
        ARGFRAME IOVERLAY, 0, STATIC
        ARGFRAME DOVERLAY, 0, STATIC
        FUNCALL zclSampleLight_LcdDisplayUpdate, zclHA_LcdStatusLine1
        LOCFRAME ISTACK, 2, STACK
        LOCFRAME PSTACK, 0, STACK
        LOCFRAME XSTACK, 0, STACK
        LOCFRAME IOVERLAY, 0, STATIC
        LOCFRAME DOVERLAY, 0, STATIC
        ARGFRAME ISTACK, 2, STACK
        ARGFRAME PSTACK, 0, STACK
        ARGFRAME XSTACK, 0, STACK
        ARGFRAME IOVERLAY, 0, STATIC
        ARGFRAME DOVERLAY, 0, STATIC
        FUNCALL zclSampleLight_LcdDisplayUpdate, zclHA_LcdStatusLine1
        LOCFRAME ISTACK, 2, STACK
        LOCFRAME PSTACK, 0, STACK
        LOCFRAME XSTACK, 0, STACK
        LOCFRAME IOVERLAY, 0, STATIC
        LOCFRAME DOVERLAY, 0, STATIC
        ARGFRAME ISTACK, 2, STACK
        ARGFRAME PSTACK, 0, STACK
        ARGFRAME XSTACK, 0, STACK
        ARGFRAME IOVERLAY, 0, STATIC
        ARGFRAME DOVERLAY, 0, STATIC
        FUNCALL zclSampleLight_LcdDisplayUpdate, zclHA_LcdStatusLine1
        LOCFRAME ISTACK, 2, STACK
        LOCFRAME PSTACK, 0, STACK
        LOCFRAME XSTACK, 0, STACK
        LOCFRAME IOVERLAY, 0, STATIC
        LOCFRAME DOVERLAY, 0, STATIC
        ARGFRAME ISTACK, 2, STACK
        ARGFRAME PSTACK, 0, STACK
        ARGFRAME XSTACK, 0, STACK
        ARGFRAME IOVERLAY, 0, STATIC
        ARGFRAME DOVERLAY, 0, STATIC
        FUNCALL zclSampleLight_LcdDisplayUpdate, HalLcdWriteString
        LOCFRAME ISTACK, 2, STACK
        LOCFRAME PSTACK, 0, STACK
        LOCFRAME XSTACK, 0, STACK
        LOCFRAME IOVERLAY, 0, STATIC
        LOCFRAME DOVERLAY, 0, STATIC
        ARGFRAME ISTACK, 2, STACK
        ARGFRAME PSTACK, 0, STACK
        ARGFRAME XSTACK, 0, STACK
        ARGFRAME IOVERLAY, 0, STATIC
        ARGFRAME DOVERLAY, 0, STATIC
        FUNCALL zclSampleLight_LcdDisplayUpdate, HalLedSet
        LOCFRAME ISTACK, 2, STACK
        LOCFRAME PSTACK, 0, STACK
        LOCFRAME XSTACK, 0, STACK
        LOCFRAME IOVERLAY, 0, STATIC
        LOCFRAME DOVERLAY, 0, STATIC
        ARGFRAME ISTACK, 2, STACK
        ARGFRAME PSTACK, 0, STACK
        ARGFRAME XSTACK, 0, STACK
        ARGFRAME IOVERLAY, 0, STATIC
        ARGFRAME DOVERLAY, 0, STATIC
        FUNCALL zclSampleLight_LcdDisplayUpdate, HalLedSet
        LOCFRAME ISTACK, 2, STACK
        LOCFRAME PSTACK, 0, STACK
        LOCFRAME XSTACK, 0, STACK
        LOCFRAME IOVERLAY, 0, STATIC
        LOCFRAME DOVERLAY, 0, STATIC
        ARGFRAME ISTACK, 2, STACK
        ARGFRAME PSTACK, 0, STACK
        ARGFRAME XSTACK, 0, STACK
        ARGFRAME IOVERLAY, 0, STATIC
        ARGFRAME DOVERLAY, 0, STATIC
        FUNCALL zclSampleLight_LcdDisplayUpdate, HalLedSet
        LOCFRAME ISTACK, 2, STACK
        LOCFRAME PSTACK, 0, STACK
        LOCFRAME XSTACK, 0, STACK
        LOCFRAME IOVERLAY, 0, STATIC
        LOCFRAME DOVERLAY, 0, STATIC
        ARGFRAME ISTACK, 2, STACK
        ARGFRAME PSTACK, 0, STACK
        ARGFRAME XSTACK, 0, STACK
        ARGFRAME IOVERLAY, 0, STATIC
        ARGFRAME DOVERLAY, 0, STATIC
        FUNCALL zclSampleLight_LcdDisplayUpdate, HalLedSet
        LOCFRAME ISTACK, 2, STACK
        LOCFRAME PSTACK, 0, STACK
        LOCFRAME XSTACK, 0, STACK
        LOCFRAME IOVERLAY, 0, STATIC
        LOCFRAME DOVERLAY, 0, STATIC
        ARGFRAME ISTACK, 2, STACK
        ARGFRAME PSTACK, 0, STACK
        ARGFRAME XSTACK, 0, STACK
        ARGFRAME IOVERLAY, 0, STATIC
        ARGFRAME DOVERLAY, 0, STATIC
        FUNCALL zclSampleLight_LcdDisplayUpdate, HalLcdWriteString
        LOCFRAME ISTACK, 2, STACK
        LOCFRAME PSTACK, 0, STACK
        LOCFRAME XSTACK, 0, STACK
        LOCFRAME IOVERLAY, 0, STATIC
        LOCFRAME DOVERLAY, 0, STATIC
        ARGFRAME ISTACK, 2, STACK
        ARGFRAME PSTACK, 0, STACK
        ARGFRAME XSTACK, 0, STACK
        ARGFRAME IOVERLAY, 0, STATIC
        ARGFRAME DOVERLAY, 0, STATIC
        FUNCALL zclSampleLight_LcdDisplayUpdate, HalLcdWriteString
        LOCFRAME ISTACK, 2, STACK
        LOCFRAME PSTACK, 0, STACK
        LOCFRAME XSTACK, 0, STACK
        LOCFRAME IOVERLAY, 0, STATIC
        LOCFRAME DOVERLAY, 0, STATIC
        ARGFRAME ISTACK, 2, STACK
        ARGFRAME PSTACK, 0, STACK
        ARGFRAME XSTACK, 0, STACK
        ARGFRAME IOVERLAY, 0, STATIC
        ARGFRAME DOVERLAY, 0, STATIC
        PUSH      DPL
          CFI DPL0 Frame(CFA_SP, 4)
          CFI CFA_SP SP+-4
        PUSH      DPH
          CFI DPH0 Frame(CFA_SP, 5)
          CFI CFA_SP SP+-5
        ; Saved register size: 2
        ; Auto size: 0
//  861 #ifdef LCD_SUPPORTED
//  862   if ( giLightScreenMode == LIGHT_HELPMODE )
        MOV       DPTR,#giLightScreenMode
        MOVX      A,@DPTR
        XRL       A,#0x1
        JNZ       ??zclSampleLight_LcdDisplayUpdate_0
//  863   {
//  864     zclSampleLight_LcdDisplayHelpMode();
        ; Setup parameters for call to function HalLcdWriteString
        MOV       R1,#0x1
        MOV       R2,#sSwLight & 0xff
        MOV       R3,#(sSwLight >> 8) & 0xff
        LCALL     `??HalLcdWriteString::?relay`; Banked call to: HalLcdWriteString
        ; Setup parameters for call to function HalLcdWriteString
        MOV       R1,#0x2
        MOV       R2,#sSwEZMode & 0xff
        MOV       R3,#(sSwEZMode >> 8) & 0xff
        LCALL     `??HalLcdWriteString::?relay`; Banked call to: HalLcdWriteString
        ; Setup parameters for call to function HalLcdWriteString
        SJMP      ??zclSampleLight_LcdDisplayUpdate_1
//  865   }
//  866   else
//  867   {
//  868     zclSampleLight_LcdDisplayMainMode();
??zclSampleLight_LcdDisplayUpdate_0:
        MOV       DPTR,#zclSampleLight_NwkState
        MOVX      A,@DPTR
        XRL       A,#0x9
        JNZ       ??zclSampleLight_LcdDisplayUpdate_2
        ; Setup parameters for call to function zclHA_LcdStatusLine1
        MOV       R1,#0x0
        SJMP      ??zclSampleLight_LcdDisplayUpdate_3
??zclSampleLight_LcdDisplayUpdate_2:
        MOVX      A,@DPTR
        XRL       A,#0x7
        JNZ       ??zclSampleLight_LcdDisplayUpdate_4
        ; Setup parameters for call to function zclHA_LcdStatusLine1
        MOV       R1,#0x1
        SJMP      ??zclSampleLight_LcdDisplayUpdate_3
??zclSampleLight_LcdDisplayUpdate_4:
        MOVX      A,@DPTR
        XRL       A,#0x6
        JNZ       ??zclSampleLight_LcdDisplayUpdate_5
        ; Setup parameters for call to function zclHA_LcdStatusLine1
        MOV       R1,#0x2
??zclSampleLight_LcdDisplayUpdate_3:
        LCALL     `??zclHA_LcdStatusLine1::?relay`; Banked call to: zclHA_LcdStatusLine1
??zclSampleLight_LcdDisplayUpdate_5:
        MOV       DPTR,#gPermitDuration
        MOVX      A,@DPTR
        MOV       DPTR,#sSwHelp + 15
        JZ        ??zclSampleLight_LcdDisplayUpdate_6
        MOV       A,#0x2a
        SJMP      ??zclSampleLight_LcdDisplayUpdate_7
??zclSampleLight_LcdDisplayUpdate_6:
        MOV       A,#0x20
??zclSampleLight_LcdDisplayUpdate_7:
        MOVX      @DPTR,A
??zclSampleLight_LcdDisplayUpdate_1:
        ; Setup parameters for call to function HalLcdWriteString
        MOV       R1,#0x3
        MOV       R2,#sSwHelp & 0xff
        MOV       R3,#(sSwHelp >> 8) & 0xff
        LCALL     `??HalLcdWriteString::?relay`; Banked call to: HalLcdWriteString
//  869   }
//  870 #endif
//  871 
//  872   zclSampleLight_DisplayLight();
        MOV       DPTR,#zclSampleLight_OnOff
        MOVX      A,@DPTR
        XRL       A,#0x1
        JNZ       ??zclSampleLight_LcdDisplayUpdate_8
        ; Setup parameters for call to function HalLedSet
        MOV       R2,#0x1
        SJMP      ??zclSampleLight_LcdDisplayUpdate_9
??zclSampleLight_LcdDisplayUpdate_8:
        ; Setup parameters for call to function HalLedSet
        MOV       R2,#0x0
??zclSampleLight_LcdDisplayUpdate_9:
        MOV       R1,#0x1
        LCALL     `??HalLedSet::?relay`; Banked call to: HalLedSet
        MOV       DPTR,#zclSampleLight_RedOnOff
        MOVX      A,@DPTR
        XRL       A,#0x1
        JNZ       ??zclSampleLight_LcdDisplayUpdate_10
        ; Setup parameters for call to function HalLedSet
        MOV       R2,#0x1
        SJMP      ??zclSampleLight_LcdDisplayUpdate_11
??zclSampleLight_LcdDisplayUpdate_10:
        ; Setup parameters for call to function HalLedSet
        MOV       R2,#0x0
??zclSampleLight_LcdDisplayUpdate_11:
        MOV       R1,#0x2
        LCALL     `??HalLedSet::?relay`; Banked call to: HalLedSet
        MOV       DPTR,#giLightScreenMode
        MOVX      A,@DPTR
        JNZ       ??zclSampleLight_LcdDisplayUpdate_12
        MOV       DPTR,#zclSampleLight_OnOff
        MOVX      A,@DPTR
        MOV       R1,#0x2
        JZ        ??zclSampleLight_LcdDisplayUpdate_13
        ; Setup parameters for call to function HalLcdWriteString
        MOV       R2,#sLightOn & 0xff
        MOV       R3,#(sLightOn >> 8) & 0xff
        SJMP      ??zclSampleLight_LcdDisplayUpdate_14
??zclSampleLight_LcdDisplayUpdate_13:
        ; Setup parameters for call to function HalLcdWriteString
        MOV       R2,#sLightOff & 0xff
        MOV       R3,#(sLightOff >> 8) & 0xff
??zclSampleLight_LcdDisplayUpdate_14:
        LCALL     `??HalLcdWriteString::?relay`; Banked call to: HalLcdWriteString
//  873 }
??zclSampleLight_LcdDisplayUpdate_12:
        LJMP      ?Subroutine2 & 0xFFFF
          CFI EndBlock cfiBlock14
//  874 
//  875 #if (defined HAL_BOARD_ZLIGHT) || (defined HAL_PWM)
//  876 /*********************************************************************
//  877  * @fn      zclSampleLight_UpdateLampLevel
//  878  *
//  879  * @brief   Update lamp level output with gamma compensation
//  880  *
//  881  * @param   level
//  882  *
//  883  * @return  none
//  884  */
//  885 void zclSampleLight_UpdateLampLevel( uint8 level )
//  886 
//  887 {
//  888   uint16 gammaCorrectedLevel;
//  889 
//  890   // gamma correct the level
//  891   gammaCorrectedLevel = (uint16) ( pow( ( (float)level / LEVEL_MAX ), (float)GAMMA_VALUE ) * (float)LEVEL_MAX);
//  892 
//  893   halTimer1SetChannelDuty(WHITE_LED, (uint16)(((uint32)gammaCorrectedLevel*PWM_FULL_DUTY_CYCLE)/LEVEL_MAX) );
//  894 }
//  895 #endif
//  896 
//  897 /*********************************************************************
//  898  * @fn      zclSampleLight_DisplayLight
//  899  *
//  900  * @brief   Displays current state of light on LED and also on main display if supported.
//  901  *
//  902  * @param   none
//  903  *
//  904  * @return  none
//  905  */
//  906 static void zclSampleLight_DisplayLight( void )
//  907 {
//  908   // set the LED1 based on light (on or off)
//  909   if ( zclSampleLight_OnOff == LIGHT_ON )
//  910   {
//  911     HalLedSet ( HAL_LED_1, HAL_LED_MODE_ON );
//  912   }
//  913   else
//  914   {
//  915     HalLedSet ( HAL_LED_1, HAL_LED_MODE_OFF );
//  916   }
//  917   
//  918   // set the LED2 (red) based on red light (on or off)
//  919   if ( zclSampleLight_RedOnOff == LIGHT_ON )
//  920   {
//  921     HalLedSet ( HAL_LED_2, HAL_LED_MODE_ON );
//  922   }
//  923   else
//  924   {
//  925     HalLedSet ( HAL_LED_2, HAL_LED_MODE_OFF );
//  926   }
//  927 
//  928 #ifdef LCD_SUPPORTED
//  929   if (giLightScreenMode == LIGHT_MAINMODE)
//  930   {
//  931 #ifdef ZCL_LEVEL_CTRL
//  932     // display current light level
//  933     if ( ( zclSampleLight_LevelCurrentLevel == ATTR_LEVEL_MIN_LEVEL ) &&
//  934          ( zclSampleLight_OnOff == LIGHT_OFF ) )
//  935     {
//  936       HalLcdWriteString( (char *)sLightOff, HAL_LCD_LINE_2 );
//  937     }
//  938     else if ( ( zclSampleLight_LevelCurrentLevel >= ATTR_LEVEL_MAX_LEVEL ) ||
//  939               ( zclSampleLight_LevelCurrentLevel == zclSampleLight_LevelOnLevel ) ||
//  940                ( ( zclSampleLight_LevelOnLevel == ATTR_LEVEL_ON_LEVEL_NO_EFFECT ) &&
//  941                  ( zclSampleLight_LevelCurrentLevel == zclSampleLight_LevelLastLevel ) ) )
//  942     {
//  943       HalLcdWriteString( (char *)sLightOn, HAL_LCD_LINE_2 );
//  944     }
//  945     else    // "    LEVEL ###"
//  946     {
//  947       zclHA_uint8toa( zclSampleLight_LevelCurrentLevel, &sLightLevel[10] );
//  948       HalLcdWriteString( (char *)sLightLevel, HAL_LCD_LINE_2 );
//  949     }
//  950 #else
//  951     if ( zclSampleLight_OnOff )
//  952     {
//  953       HalLcdWriteString( (char *)sLightOn, HAL_LCD_LINE_2 );
//  954     }
//  955     else
//  956     {
//  957       HalLcdWriteString( (char *)sLightOff, HAL_LCD_LINE_2 );
//  958     }
//  959 #endif // ZCL_LEVEL_CTRL
//  960   }
//  961 #endif // LCD_SUPPORTED
//  962 }
//  963 
//  964 #ifdef LCD_SUPPORTED
//  965 /*********************************************************************
//  966  * @fn      zclSampleLight_LcdDisplayMainMode
//  967  *
//  968  * @brief   Called to display the main screen on the LCD.
//  969  *
//  970  * @param   none
//  971  *
//  972  * @return  none
//  973  */
//  974 static void zclSampleLight_LcdDisplayMainMode( void )
//  975 {
//  976   // display line 1 to indicate NWK status
//  977   if ( zclSampleLight_NwkState == DEV_ZB_COORD )
//  978   {
//  979     zclHA_LcdStatusLine1( ZCL_HA_STATUSLINE_ZC );
//  980   }
//  981   else if ( zclSampleLight_NwkState == DEV_ROUTER )
//  982   {
//  983     zclHA_LcdStatusLine1( ZCL_HA_STATUSLINE_ZR );
//  984   }
//  985   else if ( zclSampleLight_NwkState == DEV_END_DEVICE )
//  986   {
//  987     zclHA_LcdStatusLine1( ZCL_HA_STATUSLINE_ZED );
//  988   }
//  989 
//  990   // end of line 3 displays permit join status (*)
//  991   if ( gPermitDuration )
//  992   {
//  993     sSwHelp[15] = '*';
//  994   }
//  995   else
//  996   {
//  997     sSwHelp[15] = ' ';
//  998   }
//  999   HalLcdWriteString( (char *)sSwHelp, HAL_LCD_LINE_3 );
// 1000 }
// 1001 
// 1002 /*********************************************************************
// 1003  * @fn      zclSampleLight_LcdDisplayHelpMode
// 1004  *
// 1005  * @brief   Called to display the SW options on the LCD.
// 1006  *
// 1007  * @param   none
// 1008  *
// 1009  * @return  none
// 1010  */
// 1011 static void zclSampleLight_LcdDisplayHelpMode( void )
// 1012 {
// 1013   HalLcdWriteString( (char *)sSwLight, HAL_LCD_LINE_1 );
// 1014   HalLcdWriteString( (char *)sSwEZMode, HAL_LCD_LINE_2 );
// 1015   HalLcdWriteString( (char *)sSwHelp, HAL_LCD_LINE_3 );
// 1016 }
// 1017 #endif  // LCD_SUPPORTED
// 1018 
// 1019 /*********************************************************************
// 1020  * @fn      zclSampleLight_ProcessIdentifyTimeChange
// 1021  *
// 1022  * @brief   Called to process any change to the IdentifyTime attribute.
// 1023  *
// 1024  * @param   none
// 1025  *
// 1026  * @return  none
// 1027  */

        RSEG BANKED_CODE:HUGECODE:NOROOT(0)
// 1028 static void zclSampleLight_ProcessIdentifyTimeChange( void )
zclSampleLight_ProcessIdentifyTimeChange:
          CFI Block cfiBlock15 Using cfiCommon0
          CFI Function zclSampleLight_ProcessIdentifyTimeChange
        CODE
// 1029 {
        FUNCALL zclSampleLight_ProcessIdentifyTimeChange, osal_start_timerEx
        LOCFRAME ISTACK, 2, STACK
        LOCFRAME PSTACK, 0, STACK
        LOCFRAME XSTACK, 4, STACK
        LOCFRAME IOVERLAY, 0, STATIC
        LOCFRAME DOVERLAY, 0, STATIC
        ARGFRAME ISTACK, 2, STACK
        ARGFRAME PSTACK, 0, STACK
        ARGFRAME XSTACK, 4, STACK
        ARGFRAME IOVERLAY, 0, STATIC
        ARGFRAME DOVERLAY, 0, STATIC
        FUNCALL zclSampleLight_ProcessIdentifyTimeChange, HalLedBlink
        LOCFRAME ISTACK, 2, STACK
        LOCFRAME PSTACK, 0, STACK
        LOCFRAME XSTACK, 0, STACK
        LOCFRAME IOVERLAY, 0, STATIC
        LOCFRAME DOVERLAY, 0, STATIC
        ARGFRAME ISTACK, 2, STACK
        ARGFRAME PSTACK, 0, STACK
        ARGFRAME XSTACK, 0, STACK
        ARGFRAME IOVERLAY, 0, STATIC
        ARGFRAME DOVERLAY, 0, STATIC
        FUNCALL zclSampleLight_ProcessIdentifyTimeChange, osal_stop_timerEx
        LOCFRAME ISTACK, 2, STACK
        LOCFRAME PSTACK, 0, STACK
        LOCFRAME XSTACK, 0, STACK
        LOCFRAME IOVERLAY, 0, STATIC
        LOCFRAME DOVERLAY, 0, STATIC
        ARGFRAME ISTACK, 2, STACK
        ARGFRAME PSTACK, 0, STACK
        ARGFRAME XSTACK, 0, STACK
        ARGFRAME IOVERLAY, 0, STATIC
        ARGFRAME DOVERLAY, 0, STATIC
        PUSH      DPL
          CFI DPL0 Frame(CFA_SP, 4)
          CFI CFA_SP SP+-4
        PUSH      DPH
          CFI DPH0 Frame(CFA_SP, 5)
          CFI CFA_SP SP+-5
        ; Saved register size: 2
        ; Auto size: 0
// 1030   if ( zclSampleLight_IdentifyTime > 0 )
        LCALL     ?Subroutine6 & 0xFFFF
??CrossCallReturnLabel_7:
        MOV       A,R0
        ORL       A,R1
        JZ        ??zclSampleLight_ProcessIdentifyTimeChange_0
// 1031   {
// 1032     osal_start_timerEx( zclSampleLight_TaskID, SAMPLELIGHT_IDENTIFY_TIMEOUT_EVT, 1000 );
        ; Setup parameters for call to function osal_start_timerEx
        MOV       DPTR,#__Constant_3e8
        LCALL     ?PUSH_XSTACK8_X_FOUR
          CFI CFA_XSP16 add(XSP16, 4)
        MOV       R2,#0x1
        MOV       R3,#0x0
        MOV       DPTR,#zclSampleLight_TaskID
        MOVX      A,@DPTR
        MOV       R1,A
        LCALL     `??osal_start_timerEx::?relay`; Banked call to: osal_start_timerEx
        MOV       A,#0x4
        LCALL     ?DEALLOC_XSTACK8
          CFI CFA_XSP16 XSP16+0
// 1033     HalLedBlink ( HAL_LED_4, 0xFF, HAL_LED_DEFAULT_DUTY_CYCLE, HAL_LED_DEFAULT_FLASH_TIME );
        ; Setup parameters for call to function HalLedBlink
        MOV       R4,#-0x18
        MOV       R5,#0x3
        MOV       R3,#0x5
        MOV       R2,#-0x1
        MOV       R1,#0x8
        LCALL     `??HalLedBlink::?relay`; Banked call to: HalLedBlink
        SJMP      ??zclSampleLight_ProcessIdentifyTimeChange_1
// 1034   }
// 1035   else
// 1036   {
// 1037 #ifdef ZCL_EZMODE
// 1038     if ( zclSampleLight_IdentifyCommissionState & EZMODE_COMMISSION_OPERATIONAL )
// 1039     {
// 1040       HalLedSet ( HAL_LED_4, HAL_LED_MODE_ON );
// 1041     }
// 1042     else
// 1043     {
// 1044       HalLedSet ( HAL_LED_4, HAL_LED_MODE_OFF );
// 1045     }
// 1046 #endif
// 1047 
// 1048     osal_stop_timerEx( zclSampleLight_TaskID, SAMPLELIGHT_IDENTIFY_TIMEOUT_EVT );
??zclSampleLight_ProcessIdentifyTimeChange_0:
        ; Setup parameters for call to function osal_stop_timerEx
        MOV       R2,#0x1
        MOV       R3,#0x0
        MOV       DPTR,#zclSampleLight_TaskID
        MOVX      A,@DPTR
        MOV       R1,A
        LCALL     `??osal_stop_timerEx::?relay`; Banked call to: osal_stop_timerEx
// 1049   }
// 1050 }
??zclSampleLight_ProcessIdentifyTimeChange_1:
        SJMP      ?Subroutine2
          CFI EndBlock cfiBlock15
// 1051 
// 1052 /*********************************************************************
// 1053  * @fn      zclSampleLight_BasicResetCB
// 1054  *
// 1055  * @brief   Callback from the ZCL General Cluster Library
// 1056  *          to set all the Basic Cluster attributes to default values.
// 1057  *
// 1058  * @param   none
// 1059  *
// 1060  * @return  none
// 1061  */

        RSEG BANKED_CODE:HUGECODE:NOROOT(0)
// 1062 static void zclSampleLight_BasicResetCB( void )
zclSampleLight_BasicResetCB:
          CFI Block cfiBlock16 Using cfiCommon0
          CFI Function zclSampleLight_BasicResetCB
        CODE
// 1063 {
        FUNCALL zclSampleLight_BasicResetCB, debug_str
        LOCFRAME ISTACK, 2, STACK
        LOCFRAME PSTACK, 0, STACK
        LOCFRAME XSTACK, 5, STACK
        LOCFRAME IOVERLAY, 0, STATIC
        LOCFRAME DOVERLAY, 0, STATIC
        ARGFRAME ISTACK, 2, STACK
        ARGFRAME PSTACK, 0, STACK
        ARGFRAME XSTACK, 5, STACK
        ARGFRAME IOVERLAY, 0, STATIC
        ARGFRAME DOVERLAY, 0, STATIC
        FUNCALL zclSampleLight_BasicResetCB, osal_memset
        LOCFRAME ISTACK, 2, STACK
        LOCFRAME PSTACK, 0, STACK
        LOCFRAME XSTACK, 5, STACK
        LOCFRAME IOVERLAY, 0, STATIC
        LOCFRAME DOVERLAY, 0, STATIC
        ARGFRAME ISTACK, 2, STACK
        ARGFRAME PSTACK, 0, STACK
        ARGFRAME XSTACK, 5, STACK
        ARGFRAME IOVERLAY, 0, STATIC
        ARGFRAME DOVERLAY, 0, STATIC
        FUNCALL zclSampleLight_BasicResetCB, zgWriteStartupOptions
        LOCFRAME ISTACK, 2, STACK
        LOCFRAME PSTACK, 0, STACK
        LOCFRAME XSTACK, 5, STACK
        LOCFRAME IOVERLAY, 0, STATIC
        LOCFRAME DOVERLAY, 0, STATIC
        ARGFRAME ISTACK, 2, STACK
        ARGFRAME PSTACK, 0, STACK
        ARGFRAME XSTACK, 5, STACK
        ARGFRAME IOVERLAY, 0, STATIC
        ARGFRAME DOVERLAY, 0, STATIC
        FUNCALL zclSampleLight_BasicResetCB, NLME_LeaveReq
        LOCFRAME ISTACK, 2, STACK
        LOCFRAME PSTACK, 0, STACK
        LOCFRAME XSTACK, 5, STACK
        LOCFRAME IOVERLAY, 0, STATIC
        LOCFRAME DOVERLAY, 0, STATIC
        ARGFRAME ISTACK, 2, STACK
        ARGFRAME PSTACK, 0, STACK
        ARGFRAME XSTACK, 5, STACK
        ARGFRAME IOVERLAY, 0, STATIC
        ARGFRAME DOVERLAY, 0, STATIC
        FUNCALL zclSampleLight_BasicResetCB, ZDApp_LeaveReset
        LOCFRAME ISTACK, 2, STACK
        LOCFRAME PSTACK, 0, STACK
        LOCFRAME XSTACK, 5, STACK
        LOCFRAME IOVERLAY, 0, STATIC
        LOCFRAME DOVERLAY, 0, STATIC
        ARGFRAME ISTACK, 2, STACK
        ARGFRAME PSTACK, 0, STACK
        ARGFRAME XSTACK, 5, STACK
        ARGFRAME IOVERLAY, 0, STATIC
        ARGFRAME DOVERLAY, 0, STATIC
        PUSH      DPL
          CFI DPL0 Frame(CFA_SP, 4)
          CFI CFA_SP SP+-4
        PUSH      DPH
          CFI DPH0 Frame(CFA_SP, 5)
          CFI CFA_SP SP+-5
        ; Saved register size: 2
        ; Auto size: 5
        MOV       A,#-0x5
        LCALL     ?ALLOC_XSTACK8
          CFI CFA_XSP16 add(XSP16, 5)
// 1064   // 璋璇淇℃锛烘缃璋
// 1065   debug_str("Basic Reset");
        ; Setup parameters for call to function debug_str
        MOV       R2,#`?<Constant "Basic Reset">` & 0xff
        MOV       R3,#(`?<Constant "Basic Reset">` >> 8) & 0xff
        LCALL     `??debug_str::?relay`; Banked call to: debug_str
// 1066   
// 1067   NLME_LeaveReq_t leaveReq;
// 1068   // Set every field to 0
// 1069   osal_memset( &leaveReq, 0, sizeof( NLME_LeaveReq_t ) );
        ; Setup parameters for call to function osal_memset
        MOV       R4,#0x5
        MOV       R5,#0x0
        MOV       R1,#0x0
        MOV       R2,?XSP + 0
        MOV       R3,?XSP + 1
        LCALL     `??osal_memset::?relay`; Banked call to: osal_memset
// 1070 
// 1071   // This will enable the device to rejoin the network after reset.
// 1072   leaveReq.rejoin = TRUE;
        MOV       A,#0x3
        LCALL     ?XSTACK_DISP0_8
        MOV       A,#0x1
        MOVX      @DPTR,A
// 1073 
// 1074   // Set the NV startup option to force a "new" join.
// 1075   zgWriteStartupOptions( ZG_STARTUP_SET, ZCD_STARTOPT_DEFAULT_NETWORK_STATE );
        ; Setup parameters for call to function zgWriteStartupOptions
        MOV       R2,#0x2
        MOV       R1,#-0x1
        LCALL     `??zgWriteStartupOptions::?relay`; Banked call to: zgWriteStartupOptions
// 1076 
// 1077   // Leave the network, and reset afterwards
// 1078   if ( NLME_LeaveReq( &leaveReq ) != ZSuccess )
        ; Setup parameters for call to function NLME_LeaveReq
        MOV       R2,?XSP + 0
        MOV       R3,?XSP + 1
        LCALL     `??NLME_LeaveReq::?relay`; Banked call to: NLME_LeaveReq
        MOV       A,R1
        JZ        ??zclSampleLight_BasicResetCB_0
// 1079   {
// 1080     // Couldn't send out leave; prepare to reset anyway
// 1081     ZDApp_LeaveReset( FALSE );
        ; Setup parameters for call to function ZDApp_LeaveReset
        MOV       R1,#0x0
        LCALL     `??ZDApp_LeaveReset::?relay`; Banked call to: ZDApp_LeaveReset
// 1082   }
// 1083 }
??zclSampleLight_BasicResetCB_0:
        MOV       A,#0x5
        LCALL     ?DEALLOC_XSTACK8
          CFI EndBlock cfiBlock16
        REQUIRE ?Subroutine2
        ; // Fall through to label ?Subroutine2

        RSEG BANKED_CODE:HUGECODE:NOROOT(0)
?Subroutine2:
          CFI Block cfiBlock17 Using cfiCommon0
          CFI NoFunction
          CFI CFA_SP SP+-5
          CFI DPL0 Frame(CFA_SP, 4)
          CFI DPH0 Frame(CFA_SP, 5)
        POP       DPH
          CFI CFA_SP SP+-4
          CFI DPH0 SameValue
        POP       DPL
          CFI CFA_SP SP+-3
          CFI DPL0 SameValue
        LJMP      ?BRET
          CFI EndBlock cfiBlock17
// 1084 
// 1085 /*********************************************************************
// 1086  * @fn      zclSampleLight_IdentifyCB
// 1087  *
// 1088  * @brief   Callback from the ZCL General Cluster Library when
// 1089  *          it received an Identity Command for this application.
// 1090  *
// 1091  * @param   srcAddr - source address and endpoint of the response message
// 1092  * @param   identifyTime - the number of seconds to identify yourself
// 1093  *
// 1094  * @return  none
// 1095  */

        RSEG BANKED_CODE:HUGECODE:NOROOT(0)
// 1096 static void zclSampleLight_IdentifyCB( zclIdentify_t *pCmd )
zclSampleLight_IdentifyCB:
          CFI Block cfiBlock18 Using cfiCommon0
          CFI Function zclSampleLight_IdentifyCB
        CODE
// 1097 {
        FUNCALL zclSampleLight_IdentifyCB, debug_str
        LOCFRAME ISTACK, 0, STACK
        LOCFRAME PSTACK, 0, STACK
        LOCFRAME XSTACK, 9, STACK
        LOCFRAME IOVERLAY, 0, STATIC
        LOCFRAME DOVERLAY, 0, STATIC
        ARGFRAME ISTACK, 0, STACK
        ARGFRAME PSTACK, 0, STACK
        ARGFRAME XSTACK, 9, STACK
        ARGFRAME IOVERLAY, 0, STATIC
        ARGFRAME DOVERLAY, 0, STATIC
        FUNCALL zclSampleLight_IdentifyCB, zclSampleLight_ProcessIdentifyTimeChange
        LOCFRAME ISTACK, 0, STACK
        LOCFRAME PSTACK, 0, STACK
        LOCFRAME XSTACK, 9, STACK
        LOCFRAME IOVERLAY, 0, STATIC
        LOCFRAME DOVERLAY, 0, STATIC
        ARGFRAME ISTACK, 0, STACK
        ARGFRAME PSTACK, 0, STACK
        ARGFRAME XSTACK, 9, STACK
        ARGFRAME IOVERLAY, 0, STATIC
        ARGFRAME DOVERLAY, 0, STATIC
        MOV       A,#-0x9
        LCALL     ?BANKED_ENTER_XDATA
          CFI DPH0 load(1, XDATA, add(CFA_XSP16, literal(-1)))
          CFI DPL0 load(1, XDATA, add(CFA_XSP16, literal(-2)))
          CFI ?BRET_EXT load(1, XDATA, add(CFA_XSP16, literal(-3)))
          CFI ?RET_HIGH load(1, XDATA, add(CFA_XSP16, literal(-4)))
          CFI ?RET_LOW load(1, XDATA, add(CFA_XSP16, literal(-5)))
          CFI R7 load(1, XDATA, add(CFA_XSP16, literal(-6)))
          CFI V0 load(1, XDATA, add(CFA_XSP16, literal(-7)))
          CFI VB load(1, XDATA, add(CFA_XSP16, literal(-8)))
          CFI R6 load(1, XDATA, add(CFA_XSP16, literal(-9)))
          CFI CFA_SP SP+0
          CFI CFA_XSP16 add(XSP16, 9)
        ; Saved register size: 9
        ; Auto size: 0
        MOV       A,R2
        MOV       R6,A
        MOV       A,R3
        MOV       R7,A
// 1098   // 璋璇淇℃锛璇戒护璋
// 1099   debug_str("Identify Cmd");
        ; Setup parameters for call to function debug_str
        MOV       R2,#`?<Constant "Identify Cmd">` & 0xff
        MOV       R3,#(`?<Constant "Identify Cmd">` >> 8) & 0xff
        LCALL     `??debug_str::?relay`; Banked call to: debug_str
// 1100   
// 1101   zclSampleLight_IdentifyTime = pCmd->identifyTime;
        MOV       DPL,R6
        MOV       DPH,R7
        INC       DPTR
        INC       DPTR
        LCALL     ??Subroutine7_0 & 0xFFFF
??CrossCallReturnLabel_4:
        MOV       DPTR,#zclSampleLight_IdentifyTime
        MOV       A,R0
        MOVX      @DPTR,A
        INC       DPTR
        MOV       A,R1
        MOVX      @DPTR,A
// 1102   zclSampleLight_ProcessIdentifyTimeChange();
        ; Setup parameters for call to function zclSampleLight_ProcessIdentifyTimeChange
        LCALL     `??zclSampleLight_ProcessIdentifyTimeChange::?re`; Banked call to: zclSampleLight_ProcessIdentifyTimeChange
// 1103 }
        LJMP      ?Subroutine0 & 0xFFFF
          CFI EndBlock cfiBlock18
// 1104 
// 1105 /*********************************************************************
// 1106  * @fn      zclSampleLight_IdentifyQueryRspCB
// 1107  *
// 1108  * @brief   Callback from the ZCL General Cluster Library when
// 1109  *          it received an Identity Query Response Command for this application.
// 1110  *
// 1111  * @param   srcAddr - requestor's address
// 1112  * @param   timeout - number of seconds to identify yourself (valid for query response)
// 1113  *
// 1114  * @return  none
// 1115  */

        RSEG BANKED_CODE:HUGECODE:NOROOT(0)
// 1116 static void zclSampleLight_IdentifyQueryRspCB(  zclIdentifyQueryRsp_t *pRsp )
zclSampleLight_IdentifyQueryRspCB:
          CFI Block cfiBlock19 Using cfiCommon0
          CFI Function zclSampleLight_IdentifyQueryRspCB
        CODE
// 1117 {
        FUNCALL zclSampleLight_IdentifyQueryRspCB, debug_str
        LOCFRAME ISTACK, 2, STACK
        LOCFRAME PSTACK, 0, STACK
        LOCFRAME XSTACK, 0, STACK
        LOCFRAME IOVERLAY, 0, STATIC
        LOCFRAME DOVERLAY, 0, STATIC
        ARGFRAME ISTACK, 2, STACK
        ARGFRAME PSTACK, 0, STACK
        ARGFRAME XSTACK, 0, STACK
        ARGFRAME IOVERLAY, 0, STATIC
        ARGFRAME DOVERLAY, 0, STATIC
        PUSH      DPL
          CFI DPL0 Frame(CFA_SP, 4)
          CFI CFA_SP SP+-4
        PUSH      DPH
          CFI DPH0 Frame(CFA_SP, 5)
          CFI CFA_SP SP+-5
        ; Saved register size: 2
        ; Auto size: 0
// 1118   // 璋璇淇℃锛璇ヨ㈠搴璋
// 1119   debug_str("ID Query Rsp");
        ; Setup parameters for call to function debug_str
        MOV       R2,#`?<Constant "ID Query Rsp">` & 0xff
        MOV       R3,#(`?<Constant "ID Query Rsp">` >> 8) & 0xff
        LCALL     `??debug_str::?relay`; Banked call to: debug_str
// 1120   
// 1121   (void)pRsp;
// 1122 #ifdef ZCL_EZMODE
// 1123   {
// 1124     zclEZMode_ActionData_t data;
// 1125     data.pIdentifyQueryRsp = pRsp;
// 1126     zcl_EZModeAction ( EZMODE_ACTION_IDENTIFY_QUERY_RSP, &data );
// 1127   }
// 1128 #endif
// 1129 }
        SJMP      ?Subroutine2
          CFI EndBlock cfiBlock19
// 1130 
// 1131 /*********************************************************************
// 1132  * @fn      zclSampleLight_OnOffCB
// 1133  *
// 1134  * @brief   Callback from the ZCL General Cluster Library when
// 1135  *          it received an On/Off Command for this application.
// 1136  *
// 1137  * @param   cmd - COMMAND_ON, COMMAND_OFF or COMMAND_TOGGLE
// 1138  *
// 1139  * @return  none
// 1140  */

        RSEG BANKED_CODE:HUGECODE:NOROOT(0)
// 1141 static void zclSampleLight_OnOffCB( uint8 cmd )
zclSampleLight_OnOffCB:
          CFI Block cfiBlock20 Using cfiCommon0
          CFI Function zclSampleLight_OnOffCB
        CODE
// 1142 {
        FUNCALL zclSampleLight_OnOffCB, debug_str
        LOCFRAME ISTACK, 0, STACK
        LOCFRAME PSTACK, 0, STACK
        LOCFRAME XSTACK, 10, STACK
        LOCFRAME IOVERLAY, 0, STATIC
        LOCFRAME DOVERLAY, 0, STATIC
        ARGFRAME ISTACK, 0, STACK
        ARGFRAME PSTACK, 0, STACK
        ARGFRAME XSTACK, 10, STACK
        ARGFRAME IOVERLAY, 0, STATIC
        ARGFRAME DOVERLAY, 0, STATIC
        FUNCALL zclSampleLight_OnOffCB, zcl_getRawAFMsg
        LOCFRAME ISTACK, 0, STACK
        LOCFRAME PSTACK, 0, STACK
        LOCFRAME XSTACK, 10, STACK
        LOCFRAME IOVERLAY, 0, STATIC
        LOCFRAME DOVERLAY, 0, STATIC
        ARGFRAME ISTACK, 0, STACK
        ARGFRAME PSTACK, 0, STACK
        ARGFRAME XSTACK, 10, STACK
        ARGFRAME IOVERLAY, 0, STATIC
        ARGFRAME DOVERLAY, 0, STATIC
        FUNCALL zclSampleLight_OnOffCB, zclSampleLight_LcdDisplayUpdate
        LOCFRAME ISTACK, 0, STACK
        LOCFRAME PSTACK, 0, STACK
        LOCFRAME XSTACK, 10, STACK
        LOCFRAME IOVERLAY, 0, STATIC
        LOCFRAME DOVERLAY, 0, STATIC
        ARGFRAME ISTACK, 0, STACK
        ARGFRAME PSTACK, 0, STACK
        ARGFRAME XSTACK, 10, STACK
        ARGFRAME IOVERLAY, 0, STATIC
        ARGFRAME DOVERLAY, 0, STATIC
        REQUIRE ?V0
        REQUIRE ?V1
        MOV       A,#-0xa
        LCALL     ?BANKED_ENTER_XDATA
          CFI DPH0 load(1, XDATA, add(CFA_XSP16, literal(-1)))
          CFI DPL0 load(1, XDATA, add(CFA_XSP16, literal(-2)))
          CFI ?BRET_EXT load(1, XDATA, add(CFA_XSP16, literal(-3)))
          CFI ?RET_HIGH load(1, XDATA, add(CFA_XSP16, literal(-4)))
          CFI ?RET_LOW load(1, XDATA, add(CFA_XSP16, literal(-5)))
          CFI R7 load(1, XDATA, add(CFA_XSP16, literal(-6)))
          CFI V1 load(1, XDATA, add(CFA_XSP16, literal(-7)))
          CFI V0 load(1, XDATA, add(CFA_XSP16, literal(-8)))
          CFI VB load(1, XDATA, add(CFA_XSP16, literal(-9)))
          CFI R6 load(1, XDATA, add(CFA_XSP16, literal(-10)))
          CFI CFA_SP SP+0
          CFI CFA_XSP16 add(XSP16, 10)
        ; Saved register size: 10
        ; Auto size: 0
        MOV       A,R1
        MOV       R6,A
// 1143   // 璋璇淇℃锛寮冲戒护璋
// 1144   debug_str("OnOff Cmd");
        ; Setup parameters for call to function debug_str
        MOV       R2,#`?<Constant "OnOff Cmd">` & 0xff
        MOV       R3,#(`?<Constant "OnOff Cmd">` >> 8) & 0xff
        LCALL     `??debug_str::?relay`; Banked call to: debug_str
// 1145   
// 1146   afIncomingMSGPacket_t *pPtr = zcl_getRawAFMsg();
        ; Setup parameters for call to function zcl_getRawAFMsg
        LCALL     `??zcl_getRawAFMsg::?relay`; Banked call to: zcl_getRawAFMsg
// 1147 
// 1148   zclSampleLight_DstAddr.addr.shortAddr = pPtr->srcAddr.addr.shortAddr;
        MOV       DPL,R2
        MOV       DPH,R3
        INC       DPTR
        INC       DPTR
        INC       DPTR
        INC       DPTR
        INC       DPTR
        INC       DPTR
        LCALL     ??Subroutine7_0 & 0xFFFF
??CrossCallReturnLabel_5:
        MOV       DPTR,#zclSampleLight_DstAddr
        MOV       A,R0
        MOVX      @DPTR,A
        INC       DPTR
        MOV       A,R1
        MOVX      @DPTR,A
// 1149 
// 1150   // 姝ｇ‘规绔瑰ゆ
// 1151   if ( pPtr->endPoint == SAMPLELIGHT_RED_ENDPOINT )
        MOV       A,R2
        ADD       A,#0x14
        MOV       DPL,A
        CLR       A
        ADDC      A,R3
        MOV       DPH,A
        MOVX      A,@DPTR
        MOV       R0,A
        MOV       A,#0x9
        XRL       A,R0
        JNZ       ??zclSampleLight_OnOffCB_0
// 1152   {
// 1153     // Handle red LED commands
// 1154     if ( cmd == COMMAND_ON )
        MOV       A,#0x1
        XRL       A,R6
        JZ        ??zclSampleLight_OnOffCB_1
// 1155     {
// 1156       zclSampleLight_RedOnOff = LIGHT_ON;
// 1157     }
// 1158     else if ( cmd == COMMAND_OFF )
        MOV       A,R6
        JZ        ??zclSampleLight_OnOffCB_2
// 1159     {
// 1160       zclSampleLight_RedOnOff = LIGHT_OFF;
// 1161     }
// 1162     else if ( cmd == COMMAND_TOGGLE )
        MOV       A,#0x2
        XRL       A,R6
        JNZ       ??zclSampleLight_OnOffCB_3
// 1163     {
// 1164       if ( zclSampleLight_RedOnOff == LIGHT_OFF )
        MOV       DPTR,#zclSampleLight_RedOnOff
        MOVX      A,@DPTR
        JNZ       ??zclSampleLight_OnOffCB_2
// 1165       {
// 1166         zclSampleLight_RedOnOff = LIGHT_ON;
??zclSampleLight_OnOffCB_1:
        MOV       DPTR,#zclSampleLight_RedOnOff
        SJMP      ??zclSampleLight_OnOffCB_4
// 1167       }
// 1168       else
// 1169       {
// 1170         zclSampleLight_RedOnOff = LIGHT_OFF;
??zclSampleLight_OnOffCB_2:
        MOV       DPTR,#zclSampleLight_RedOnOff
        SJMP      ??zclSampleLight_OnOffCB_5
// 1171       }
// 1172     }
// 1173   }
// 1174   else if ( pPtr->endPoint == SAMPLELIGHT_ENDPOINT )
??zclSampleLight_OnOffCB_0:
        MOV       A,#0x8
        XRL       A,R0
        JNZ       ??zclSampleLight_OnOffCB_3
// 1175   {
// 1176     // Handle green LED commands (original endpoint)
// 1177     if ( cmd == COMMAND_ON )
        MOV       A,#0x1
        XRL       A,R6
        JZ        ??zclSampleLight_OnOffCB_6
// 1178     {
// 1179       zclSampleLight_OnOff = LIGHT_ON;
// 1180     }
// 1181     else if ( cmd == COMMAND_OFF )
        MOV       A,R6
        JZ        ??zclSampleLight_OnOffCB_7
// 1182     {
// 1183       zclSampleLight_OnOff = LIGHT_OFF;
// 1184     }
// 1185     else if ( cmd == COMMAND_TOGGLE )
        MOV       A,#0x2
        XRL       A,R6
        JNZ       ??zclSampleLight_OnOffCB_3
// 1186     {
// 1187       if ( zclSampleLight_OnOff == LIGHT_OFF )
        MOV       DPTR,#zclSampleLight_OnOff
        MOVX      A,@DPTR
        JNZ       ??zclSampleLight_OnOffCB_7
// 1188       {
// 1189         zclSampleLight_OnOff = LIGHT_ON;
??zclSampleLight_OnOffCB_6:
        MOV       DPTR,#zclSampleLight_OnOff
??zclSampleLight_OnOffCB_4:
        MOV       A,#0x1
        SJMP      ??zclSampleLight_OnOffCB_8
// 1190       }
// 1191       else
// 1192       {
// 1193         zclSampleLight_OnOff = LIGHT_OFF;
??zclSampleLight_OnOffCB_7:
        MOV       DPTR,#zclSampleLight_OnOff
??zclSampleLight_OnOffCB_5:
        CLR       A
??zclSampleLight_OnOffCB_8:
        MOVX      @DPTR,A
// 1194       }
// 1195     }
// 1196 #if ZCL_LEVEL_CTRL
// 1197     zclSampleLight_DefaultMove( );
// 1198 #endif
// 1199   }
// 1200   // 娉ㄦ锛寮崇癸1011锛涓澶杩绋у跺戒护锛舵
// 1201 
// 1202   // update the display
// 1203   zclSampleLight_LcdDisplayUpdate( );
??zclSampleLight_OnOffCB_3:
        ; Setup parameters for call to function zclSampleLight_LcdDisplayUpdate
        LCALL     `??zclSampleLight_LcdDisplayUpdate::?relay`; Banked call to: zclSampleLight_LcdDisplayUpdate
// 1204 }
          CFI EndBlock cfiBlock20
        REQUIRE ?Subroutine3
        ; // Fall through to label ?Subroutine3

        RSEG BANKED_CODE:HUGECODE:NOROOT(0)
?Subroutine3:
          CFI Block cfiBlock21 Using cfiCommon0
          CFI NoFunction
          CFI CFA_SP SP+0
          CFI CFA_XSP16 add(XSP16, 10)
          CFI VB load(1, XDATA, add(CFA_XSP16, literal(-9)))
          CFI DPL0 load(1, XDATA, add(CFA_XSP16, literal(-2)))
          CFI DPH0 load(1, XDATA, add(CFA_XSP16, literal(-1)))
          CFI R6 load(1, XDATA, add(CFA_XSP16, literal(-10)))
          CFI R7 load(1, XDATA, add(CFA_XSP16, literal(-6)))
          CFI V0 load(1, XDATA, add(CFA_XSP16, literal(-8)))
          CFI V1 load(1, XDATA, add(CFA_XSP16, literal(-7)))
          CFI ?BRET_EXT load(1, XDATA, add(CFA_XSP16, literal(-3)))
          CFI ?RET_HIGH load(1, XDATA, add(CFA_XSP16, literal(-4)))
          CFI ?RET_LOW load(1, XDATA, add(CFA_XSP16, literal(-5)))
        MOV       R7,#0x2
        LJMP      ?BANKED_LEAVE_XDATA
          CFI EndBlock cfiBlock21
// 1205 
// 1206 #ifdef ZCL_LEVEL_CTRL
// 1207 /*********************************************************************
// 1208  * @fn      zclSampleLight_TimeRateHelper
// 1209  *
// 1210  * @brief   Calculate time based on rate, and startup level state machine
// 1211  *
// 1212  * @param   newLevel - new level for current level
// 1213  *
// 1214  * @return  diff (directly), zclSampleLight_CurrentLevel32 and zclSampleLight_NewLevel, zclSampleLight_NewLevelUp
// 1215  */
// 1216 static uint32 zclSampleLight_TimeRateHelper( uint8 newLevel )
// 1217 {
// 1218   uint32 diff;
// 1219   uint32 newLevel32;
// 1220 
// 1221   // remember current and new level
// 1222   zclSampleLight_NewLevel = newLevel;
// 1223   zclSampleLight_CurrentLevel32 = (uint32)1000 * zclSampleLight_LevelCurrentLevel;
// 1224 
// 1225   // calculate diff
// 1226   newLevel32 = (uint32)1000 * newLevel;
// 1227   if ( zclSampleLight_LevelCurrentLevel > newLevel )
// 1228   {
// 1229     diff = zclSampleLight_CurrentLevel32 - newLevel32;
// 1230     zclSampleLight_NewLevelUp = FALSE;  // moving down
// 1231   }
// 1232   else
// 1233   {
// 1234     diff = newLevel32 - zclSampleLight_CurrentLevel32;
// 1235     zclSampleLight_NewLevelUp = TRUE;   // moving up
// 1236   }
// 1237 
// 1238   return ( diff );
// 1239 }
// 1240 
// 1241 /*********************************************************************
// 1242  * @fn      zclSampleLight_MoveBasedOnRate
// 1243  *
// 1244  * @brief   Calculate time based on rate, and startup level state machine
// 1245  *
// 1246  * @param   newLevel - new level for current level
// 1247  * @param   rate16   - fixed point rate (e.g. 16.123)
// 1248  *
// 1249  * @return  none
// 1250  */
// 1251 static void zclSampleLight_MoveBasedOnRate( uint8 newLevel, uint32 rate )
// 1252 {
// 1253   uint32 diff;
// 1254 
// 1255   // determine how much time (in 10ths of seconds) based on the difference and rate
// 1256   zclSampleLight_Rate32 = rate;
// 1257   diff = zclSampleLight_TimeRateHelper( newLevel );
// 1258   zclSampleLight_LevelRemainingTime = diff / rate;
// 1259   if ( !zclSampleLight_LevelRemainingTime )
// 1260   {
// 1261     zclSampleLight_LevelRemainingTime = 1;
// 1262   }
// 1263 
// 1264   osal_start_timerEx( zclSampleLight_TaskID, SAMPLELIGHT_LEVEL_CTRL_EVT, 100 );
// 1265 }
// 1266 
// 1267 /*********************************************************************
// 1268  * @fn      zclSampleLight_MoveBasedOnTime
// 1269  *
// 1270  * @brief   Calculate rate based on time, and startup level state machine
// 1271  *
// 1272  * @param   newLevel  - new level for current level
// 1273  * @param   time      - in 10ths of seconds
// 1274  *
// 1275  * @return  none
// 1276  */
// 1277 static void zclSampleLight_MoveBasedOnTime( uint8 newLevel, uint16 time )
// 1278 {
// 1279   uint16 diff;
// 1280 
// 1281   // determine rate (in units) based on difference and time
// 1282   diff = zclSampleLight_TimeRateHelper( newLevel );
// 1283   zclSampleLight_LevelRemainingTime = zclSampleLight_GetTime( newLevel, time );
// 1284   zclSampleLight_Rate32 = diff / time;
// 1285 
// 1286   osal_start_timerEx( zclSampleLight_TaskID, SAMPLELIGHT_LEVEL_CTRL_EVT, 100 );
// 1287 }
// 1288 
// 1289 /*********************************************************************
// 1290  * @fn      zclSampleLight_GetTime
// 1291  *
// 1292  * @brief   Determine amount of time that MoveXXX will take to complete.
// 1293  *
// 1294  * @param   level = new level to move to
// 1295  *          time  = 0xffff=default, or 0x0000-n amount of time in tenths of seconds.
// 1296  *
// 1297  * @return  none
// 1298  */
// 1299 static uint16 zclSampleLight_GetTime( uint8 level, uint16 time )
// 1300 {
// 1301   // there is a hiearchy of the amount of time to use for transistioning
// 1302   // check each one in turn. If none of defaults are set, then use fastest
// 1303   // time possible.
// 1304   if ( time == 0xFFFF )
// 1305   {
// 1306     // use On or Off Transition Time if set (not 0xffff)
// 1307     if ( zclSampleLight_OnOff == LIGHT_ON )
// 1308     {
// 1309       time = zclSampleLight_LevelOffTransitionTime;
// 1310     }
// 1311     else
// 1312     {
// 1313       time = zclSampleLight_LevelOnTransitionTime;
// 1314     }
// 1315 
// 1316     // else use OnOffTransitionTime if set (not 0xffff)
// 1317     if ( time == 0xFFFF )
// 1318     {
// 1319       time = zclSampleLight_LevelOnOffTransitionTime;
// 1320     }
// 1321 
// 1322     // else as fast as possible
// 1323     if ( time == 0xFFFF )
// 1324     {
// 1325       time = 1;
// 1326     }
// 1327   }
// 1328 
// 1329   if ( !time )
// 1330   {
// 1331     time = 1; // as fast as possible
// 1332   }
// 1333 
// 1334   return ( time );
// 1335 }
// 1336 
// 1337 /*********************************************************************
// 1338  * @fn      zclSampleLight_DefaultMove
// 1339  *
// 1340  * @brief   We were turned on/off. Use default time to move to on or off.
// 1341  *
// 1342  * @param   zclSampleLight_OnOff - must be set prior to calling this function.
// 1343  *
// 1344  * @return  none
// 1345  */
// 1346 static void zclSampleLight_DefaultMove( void )
// 1347 {
// 1348   uint8  newLevel;
// 1349   uint32 rate;      // fixed point decimal (3 places, eg. 16.345)
// 1350   uint16 time;
// 1351 
// 1352   // if moving to on position, move to on level
// 1353   if ( zclSampleLight_OnOff )
// 1354   {
// 1355     if ( zclSampleLight_LevelOnLevel == ATTR_LEVEL_ON_LEVEL_NO_EFFECT )
// 1356     {
// 1357       // The last Level (before going OFF) should be used)
// 1358       newLevel = zclSampleLight_LevelLastLevel;
// 1359     }
// 1360     else
// 1361     {
// 1362       newLevel = zclSampleLight_LevelOnLevel;
// 1363     }
// 1364 
// 1365     time = zclSampleLight_LevelOnTransitionTime;
// 1366   }
// 1367   else
// 1368   {
// 1369     newLevel = ATTR_LEVEL_MIN_LEVEL;
// 1370 
// 1371     if ( zclSampleLight_LevelOnLevel == ATTR_LEVEL_ON_LEVEL_NO_EFFECT )
// 1372     {
// 1373       // Save the current Level before going OFF to use it when the light turns ON
// 1374       // it should be back to this level
// 1375       zclSampleLight_LevelLastLevel = zclSampleLight_LevelCurrentLevel;
// 1376     }
// 1377 
// 1378     time = zclSampleLight_LevelOffTransitionTime;
// 1379   }
// 1380 
// 1381   // else use OnOffTransitionTime if set (not 0xffff)
// 1382   if ( time == 0xFFFF )
// 1383   {
// 1384     time = zclSampleLight_LevelOnOffTransitionTime;
// 1385   }
// 1386 
// 1387   // else as fast as possible
// 1388   if ( time == 0xFFFF )
// 1389   {
// 1390     time = 1;
// 1391   }
// 1392 
// 1393   // calculate rate based on time (int 10ths) for full transition (1-254)
// 1394   rate = 255000 / time;    // units per tick, fixed point, 3 decimal places (e.g. 8500 = 8.5 units per tick)
// 1395 
// 1396   // start up state machine.
// 1397   zclSampleLight_WithOnOff = TRUE;
// 1398   zclSampleLight_MoveBasedOnRate( newLevel, rate );
// 1399 }
// 1400 
// 1401 /*********************************************************************
// 1402  * @fn      zclSampleLight_AdjustLightLevel
// 1403  *
// 1404  * @brief   Called each 10th of a second while state machine running
// 1405  *
// 1406  * @param   none
// 1407  *
// 1408  * @return  none
// 1409  */
// 1410 static void zclSampleLight_AdjustLightLevel( void )
// 1411 {
// 1412   // one tick (10th of a second) less
// 1413   if ( zclSampleLight_LevelRemainingTime )
// 1414   {
// 1415     --zclSampleLight_LevelRemainingTime;
// 1416   }
// 1417 
// 1418   // no time left, done
// 1419   if ( zclSampleLight_LevelRemainingTime == 0)
// 1420   {
// 1421     zclSampleLight_LevelCurrentLevel = zclSampleLight_NewLevel;
// 1422   }
// 1423 
// 1424   // still time left, keep increment/decrementing
// 1425   else
// 1426   {
// 1427     if ( zclSampleLight_NewLevelUp )
// 1428     {
// 1429       zclSampleLight_CurrentLevel32 += zclSampleLight_Rate32;
// 1430     }
// 1431     else
// 1432     {
// 1433       zclSampleLight_CurrentLevel32 -= zclSampleLight_Rate32;
// 1434     }
// 1435     zclSampleLight_LevelCurrentLevel = (uint8)( zclSampleLight_CurrentLevel32 / 1000 );
// 1436   }
// 1437 
// 1438 #if (defined HAL_BOARD_ZLIGHT) || (defined HAL_PWM)
// 1439   zclSampleLight_UpdateLampLevel(zclSampleLight_LevelCurrentLevel);
// 1440 #endif
// 1441 
// 1442   // also affect on/off
// 1443   if ( zclSampleLight_WithOnOff )
// 1444   {
// 1445     if ( zclSampleLight_LevelCurrentLevel > ATTR_LEVEL_MIN_LEVEL )
// 1446     {
// 1447       zclSampleLight_OnOff = LIGHT_ON;
// 1448 #if (defined HAL_BOARD_ZLIGHT) || (defined HAL_PWM)
// 1449       ENABLE_LAMP;
// 1450 #endif
// 1451     }
// 1452     else
// 1453     {
// 1454       zclSampleLight_OnOff = LIGHT_OFF;
// 1455 #if (defined HAL_BOARD_ZLIGHT) || (defined HAL_PWM)
// 1456       DISABLE_LAMP;
// 1457 #endif
// 1458     }
// 1459   }
// 1460 
// 1461   // display light level as we go
// 1462   zclSampleLight_DisplayLight( );
// 1463 
// 1464   // keep ticking away
// 1465   if ( zclSampleLight_LevelRemainingTime )
// 1466   {
// 1467     osal_start_timerEx( zclSampleLight_TaskID, SAMPLELIGHT_LEVEL_CTRL_EVT, 100 );
// 1468   }
// 1469 }
// 1470 
// 1471 /*********************************************************************
// 1472  * @fn      zclSampleLight_LevelControlMoveToLevelCB
// 1473  *
// 1474  * @brief   Callback from the ZCL General Cluster Library when
// 1475  *          it received a LevelControlMoveToLevel Command for this application.
// 1476  *
// 1477  * @param   pCmd - ZigBee command parameters
// 1478  *
// 1479  * @return  none
// 1480  */
// 1481 static void zclSampleLight_LevelControlMoveToLevelCB( zclLCMoveToLevel_t *pCmd )
// 1482 {
// 1483   // 璋璇淇℃锛绉诲ㄥ扮骇戒护璋
// 1484   debug_str("MoveToLevel");
// 1485   
// 1486   zclSampleLight_WithOnOff = pCmd->withOnOff;
// 1487   zclSampleLight_MoveBasedOnTime( pCmd->level, pCmd->transitionTime );
// 1488 }
// 1489 
// 1490 /*********************************************************************
// 1491  * @fn      zclSampleLight_LevelControlMoveCB
// 1492  *
// 1493  * @brief   Callback from the ZCL General Cluster Library when
// 1494  *          it received a LevelControlMove Command for this application.
// 1495  *
// 1496  * @param   pCmd - ZigBee command parameters
// 1497  *
// 1498  * @return  none
// 1499  */
// 1500 static void zclSampleLight_LevelControlMoveCB( zclLCMove_t *pCmd )
// 1501 {
// 1502   // 璋璇淇℃锛绉诲ㄥ戒护璋
// 1503   debug_str("Level Move");
// 1504   
// 1505   uint8 newLevel;
// 1506   uint32 rate;
// 1507 
// 1508   // convert rate from units per second to units per tick (10ths of seconds)
// 1509   // and move at that right up or down
// 1510   zclSampleLight_WithOnOff = pCmd->withOnOff;
// 1511 
// 1512   if ( pCmd->moveMode == LEVEL_MOVE_UP )
// 1513   {
// 1514     newLevel = ATTR_LEVEL_MAX_LEVEL;  // fully on
// 1515   }
// 1516   else
// 1517   {
// 1518     newLevel = ATTR_LEVEL_MIN_LEVEL; // fully off
// 1519   }
// 1520 
// 1521   rate = (uint32)100 * pCmd->rate;
// 1522   zclSampleLight_MoveBasedOnRate( newLevel, rate );
// 1523 }
// 1524 
// 1525 /*********************************************************************
// 1526  * @fn      zclSampleLight_LevelControlStepCB
// 1527  *
// 1528  * @brief   Callback from the ZCL General Cluster Library when
// 1529  *          it received an On/Off Command for this application.
// 1530  *
// 1531  * @param   pCmd - ZigBee command parameters
// 1532  *
// 1533  * @return  none
// 1534  */
// 1535 static void zclSampleLight_LevelControlStepCB( zclLCStep_t *pCmd )
// 1536 {
// 1537   // 璋璇淇℃锛姝ヨ戒护璋
// 1538   debug_str("Level Step");
// 1539   
// 1540   uint8 newLevel;
// 1541 
// 1542   // determine new level, but don't exceed boundaries
// 1543   if ( pCmd->stepMode == LEVEL_MOVE_UP )
// 1544   {
// 1545     if ( (uint16)zclSampleLight_LevelCurrentLevel + pCmd->amount > ATTR_LEVEL_MAX_LEVEL )
// 1546     {
// 1547       newLevel = ATTR_LEVEL_MAX_LEVEL;
// 1548     }
// 1549     else
// 1550     {
// 1551       newLevel = zclSampleLight_LevelCurrentLevel + pCmd->amount;
// 1552     }
// 1553   }
// 1554   else
// 1555   {
// 1556     if ( pCmd->amount >= zclSampleLight_LevelCurrentLevel )
// 1557     {
// 1558       newLevel = ATTR_LEVEL_MIN_LEVEL;
// 1559     }
// 1560     else
// 1561     {
// 1562       newLevel = zclSampleLight_LevelCurrentLevel - pCmd->amount;
// 1563     }
// 1564   }
// 1565 
// 1566   // move to the new level
// 1567   zclSampleLight_WithOnOff = pCmd->withOnOff;
// 1568   zclSampleLight_MoveBasedOnTime( newLevel, pCmd->transitionTime );
// 1569 }
// 1570 
// 1571 /*********************************************************************
// 1572  * @fn      zclSampleLight_LevelControlStopCB
// 1573  *
// 1574  * @brief   Callback from the ZCL General Cluster Library when
// 1575  *          it received an Level Control Stop Command for this application.
// 1576  *
// 1577  * @param   pCmd - ZigBee command parameters
// 1578  *
// 1579  * @return  none
// 1580  */
// 1581 static void zclSampleLight_LevelControlStopCB( void )
// 1582 {
// 1583   // 璋璇淇℃锛姝㈠戒护璋
// 1584   debug_str("Level Stop");
// 1585   
// 1586   // stop immediately
// 1587   osal_stop_timerEx( zclSampleLight_TaskID, SAMPLELIGHT_LEVEL_CTRL_EVT );
// 1588   zclSampleLight_LevelRemainingTime = 0;
// 1589 }
// 1590 #endif
// 1591 
// 1592 /******************************************************************************
// 1593  *
// 1594  *  Functions for processing ZCL Foundation incoming Command/Response messages
// 1595  *
// 1596  *****************************************************************************/
// 1597 
// 1598 /*********************************************************************
// 1599  * @fn      zclSampleLight_ProcessIncomingMsg
// 1600  *
// 1601  * @brief   Process ZCL Foundation incoming message
// 1602  *
// 1603  * @param   pInMsg - pointer to the received message
// 1604  *
// 1605  * @return  none
// 1606  */

        RSEG BANKED_CODE:HUGECODE:NOROOT(0)
// 1607 static void zclSampleLight_ProcessIncomingMsg( zclIncomingMsg_t *pInMsg )
zclSampleLight_ProcessIncomingMsg:
          CFI Block cfiBlock22 Using cfiCommon0
          CFI Function zclSampleLight_ProcessIncomingMsg
        CODE
// 1608 {
        FUNCALL zclSampleLight_ProcessIncomingMsg, debug_str
        LOCFRAME ISTACK, 0, STACK
        LOCFRAME PSTACK, 0, STACK
        LOCFRAME XSTACK, 10, STACK
        LOCFRAME IOVERLAY, 0, STATIC
        LOCFRAME DOVERLAY, 0, STATIC
        ARGFRAME ISTACK, 0, STACK
        ARGFRAME PSTACK, 0, STACK
        ARGFRAME XSTACK, 10, STACK
        ARGFRAME IOVERLAY, 0, STATIC
        ARGFRAME DOVERLAY, 0, STATIC
        FUNCALL zclSampleLight_ProcessIncomingMsg, debug_str
        LOCFRAME ISTACK, 0, STACK
        LOCFRAME PSTACK, 0, STACK
        LOCFRAME XSTACK, 10, STACK
        LOCFRAME IOVERLAY, 0, STATIC
        LOCFRAME DOVERLAY, 0, STATIC
        ARGFRAME ISTACK, 0, STACK
        ARGFRAME PSTACK, 0, STACK
        ARGFRAME XSTACK, 10, STACK
        ARGFRAME IOVERLAY, 0, STATIC
        ARGFRAME DOVERLAY, 0, STATIC
        FUNCALL zclSampleLight_ProcessIncomingMsg, debug_str
        LOCFRAME ISTACK, 0, STACK
        LOCFRAME PSTACK, 0, STACK
        LOCFRAME XSTACK, 10, STACK
        LOCFRAME IOVERLAY, 0, STATIC
        LOCFRAME DOVERLAY, 0, STATIC
        ARGFRAME ISTACK, 0, STACK
        ARGFRAME PSTACK, 0, STACK
        ARGFRAME XSTACK, 10, STACK
        ARGFRAME IOVERLAY, 0, STATIC
        ARGFRAME DOVERLAY, 0, STATIC
        FUNCALL zclSampleLight_ProcessIncomingMsg, debug_str
        LOCFRAME ISTACK, 0, STACK
        LOCFRAME PSTACK, 0, STACK
        LOCFRAME XSTACK, 10, STACK
        LOCFRAME IOVERLAY, 0, STATIC
        LOCFRAME DOVERLAY, 0, STATIC
        ARGFRAME ISTACK, 0, STACK
        ARGFRAME PSTACK, 0, STACK
        ARGFRAME XSTACK, 10, STACK
        ARGFRAME IOVERLAY, 0, STATIC
        ARGFRAME DOVERLAY, 0, STATIC
        FUNCALL zclSampleLight_ProcessIncomingMsg, debug_str
        LOCFRAME ISTACK, 0, STACK
        LOCFRAME PSTACK, 0, STACK
        LOCFRAME XSTACK, 10, STACK
        LOCFRAME IOVERLAY, 0, STATIC
        LOCFRAME DOVERLAY, 0, STATIC
        ARGFRAME ISTACK, 0, STACK
        ARGFRAME PSTACK, 0, STACK
        ARGFRAME XSTACK, 10, STACK
        ARGFRAME IOVERLAY, 0, STATIC
        ARGFRAME DOVERLAY, 0, STATIC
        FUNCALL zclSampleLight_ProcessIncomingMsg, debug_str
        LOCFRAME ISTACK, 0, STACK
        LOCFRAME PSTACK, 0, STACK
        LOCFRAME XSTACK, 10, STACK
        LOCFRAME IOVERLAY, 0, STATIC
        LOCFRAME DOVERLAY, 0, STATIC
        ARGFRAME ISTACK, 0, STACK
        ARGFRAME PSTACK, 0, STACK
        ARGFRAME XSTACK, 10, STACK
        ARGFRAME IOVERLAY, 0, STATIC
        ARGFRAME DOVERLAY, 0, STATIC
        FUNCALL zclSampleLight_ProcessIncomingMsg, debug_str
        LOCFRAME ISTACK, 0, STACK
        LOCFRAME PSTACK, 0, STACK
        LOCFRAME XSTACK, 10, STACK
        LOCFRAME IOVERLAY, 0, STATIC
        LOCFRAME DOVERLAY, 0, STATIC
        ARGFRAME ISTACK, 0, STACK
        ARGFRAME PSTACK, 0, STACK
        ARGFRAME XSTACK, 10, STACK
        ARGFRAME IOVERLAY, 0, STATIC
        ARGFRAME DOVERLAY, 0, STATIC
        FUNCALL zclSampleLight_ProcessIncomingMsg, debug_str
        LOCFRAME ISTACK, 0, STACK
        LOCFRAME PSTACK, 0, STACK
        LOCFRAME XSTACK, 10, STACK
        LOCFRAME IOVERLAY, 0, STATIC
        LOCFRAME DOVERLAY, 0, STATIC
        ARGFRAME ISTACK, 0, STACK
        ARGFRAME PSTACK, 0, STACK
        ARGFRAME XSTACK, 10, STACK
        ARGFRAME IOVERLAY, 0, STATIC
        ARGFRAME DOVERLAY, 0, STATIC
        FUNCALL zclSampleLight_ProcessIncomingMsg, debug_str
        LOCFRAME ISTACK, 0, STACK
        LOCFRAME PSTACK, 0, STACK
        LOCFRAME XSTACK, 10, STACK
        LOCFRAME IOVERLAY, 0, STATIC
        LOCFRAME DOVERLAY, 0, STATIC
        ARGFRAME ISTACK, 0, STACK
        ARGFRAME PSTACK, 0, STACK
        ARGFRAME XSTACK, 10, STACK
        ARGFRAME IOVERLAY, 0, STATIC
        ARGFRAME DOVERLAY, 0, STATIC
        FUNCALL zclSampleLight_ProcessIncomingMsg, debug_str
        LOCFRAME ISTACK, 0, STACK
        LOCFRAME PSTACK, 0, STACK
        LOCFRAME XSTACK, 10, STACK
        LOCFRAME IOVERLAY, 0, STATIC
        LOCFRAME DOVERLAY, 0, STATIC
        ARGFRAME ISTACK, 0, STACK
        ARGFRAME PSTACK, 0, STACK
        ARGFRAME XSTACK, 10, STACK
        ARGFRAME IOVERLAY, 0, STATIC
        ARGFRAME DOVERLAY, 0, STATIC
        FUNCALL zclSampleLight_ProcessIncomingMsg, osal_mem_free
        LOCFRAME ISTACK, 0, STACK
        LOCFRAME PSTACK, 0, STACK
        LOCFRAME XSTACK, 10, STACK
        LOCFRAME IOVERLAY, 0, STATIC
        LOCFRAME DOVERLAY, 0, STATIC
        ARGFRAME ISTACK, 0, STACK
        ARGFRAME PSTACK, 0, STACK
        ARGFRAME XSTACK, 10, STACK
        ARGFRAME IOVERLAY, 0, STATIC
        ARGFRAME DOVERLAY, 0, STATIC
        REQUIRE ?V0
        REQUIRE ?V1
        MOV       A,#-0xa
        LCALL     ?BANKED_ENTER_XDATA
          CFI DPH0 load(1, XDATA, add(CFA_XSP16, literal(-1)))
          CFI DPL0 load(1, XDATA, add(CFA_XSP16, literal(-2)))
          CFI ?BRET_EXT load(1, XDATA, add(CFA_XSP16, literal(-3)))
          CFI ?RET_HIGH load(1, XDATA, add(CFA_XSP16, literal(-4)))
          CFI ?RET_LOW load(1, XDATA, add(CFA_XSP16, literal(-5)))
          CFI R7 load(1, XDATA, add(CFA_XSP16, literal(-6)))
          CFI V1 load(1, XDATA, add(CFA_XSP16, literal(-7)))
          CFI V0 load(1, XDATA, add(CFA_XSP16, literal(-8)))
          CFI VB load(1, XDATA, add(CFA_XSP16, literal(-9)))
          CFI R6 load(1, XDATA, add(CFA_XSP16, literal(-10)))
          CFI CFA_SP SP+0
          CFI CFA_XSP16 add(XSP16, 10)
        ; Saved register size: 10
        ; Auto size: 0
        MOV       A,R2
        MOV       R6,A
        MOV       A,R3
        MOV       R7,A
// 1609   // 璋璇淇℃锛澶ZCL娑
// 1610   debug_str("Process ZCL");
        ; Setup parameters for call to function debug_str
        MOV       R2,#`?<Constant "Process ZCL">` & 0xff
        MOV       R3,#(`?<Constant "Process ZCL">` >> 8) & 0xff
        LCALL     `??debug_str::?relay`; Banked call to: debug_str
// 1611   
// 1612   switch ( pInMsg->zclHdr.commandID )
        MOV       A,R6
        ADD       A,#0x17
        MOV       ?V0,A
        CLR       A
        ADDC      A,R7
        MOV       ?V1,A
        MOV       DPL,R6
        MOV       DPH,R7
        INC       DPTR
        INC       DPTR
        INC       DPTR
        INC       DPTR
        INC       DPTR
        INC       DPTR
        INC       DPTR
        MOVX      A,@DPTR
        DEC       A
        JZ        ??zclSampleLight_ProcessIncomingMsg_0
        ADD       A,#-0x3
        JZ        ??zclSampleLight_ProcessIncomingMsg_1
        ADD       A,#-0x2
        JZ        ??zclSampleLight_ProcessIncomingMsg_2
        DEC       A
        JZ        ??zclSampleLight_ProcessIncomingMsg_3
        DEC       A
        JZ        ??zclSampleLight_ProcessIncomingMsg_4
        DEC       A
        JZ        ??zclSampleLight_ProcessIncomingMsg_5
        DEC       A
        JZ        ??zclSampleLight_ProcessIncomingMsg_6
        DEC       A
        JZ        ??zclSampleLight_ProcessIncomingMsg_7
        SJMP      ??zclSampleLight_ProcessIncomingMsg_8
// 1613   {
// 1614 #ifdef ZCL_READ
// 1615     case ZCL_CMD_READ_RSP:
// 1616       // 璋璇淇℃锛璇诲搴
// 1617       debug_str("Read Rsp");
??zclSampleLight_ProcessIncomingMsg_0:
        ; Setup parameters for call to function debug_str
        MOV       R2,#`?<Constant "Read Rsp">` & 0xff
        MOV       R3,#(`?<Constant "Read Rsp">` >> 8) & 0xff
        LCALL     `??debug_str::?relay`; Banked call to: debug_str
// 1618       zclSampleLight_ProcessInReadRspCmd( pInMsg );
        LCALL     ?Subroutine5 & 0xFFFF
??CrossCallReturnLabel_2:
        MOVX      A,@DPTR
        MOV       R1,A
        MOV       A,R0
        CLR       C
        SUBB      A,R1
        JNC       ??zclSampleLight_ProcessIncomingMsg_9
        INC       R0
        SJMP      ??CrossCallReturnLabel_2
// 1619       break;
// 1620 #endif
// 1621 #ifdef ZCL_WRITE
// 1622     case ZCL_CMD_WRITE_RSP:
// 1623       // 璋璇淇℃锛ュ搴
// 1624       debug_str("Write Rsp");
??zclSampleLight_ProcessIncomingMsg_1:
        ; Setup parameters for call to function debug_str
        MOV       R2,#`?<Constant "Write Rsp">` & 0xff
        MOV       R3,#(`?<Constant "Write Rsp">` >> 8) & 0xff
        LCALL     `??debug_str::?relay`; Banked call to: debug_str
// 1625       zclSampleLight_ProcessInWriteRspCmd( pInMsg );
        LCALL     ?Subroutine5 & 0xFFFF
??CrossCallReturnLabel_3:
        MOVX      A,@DPTR
        MOV       R1,A
        MOV       A,R0
        CLR       C
        SUBB      A,R1
        JNC       ??zclSampleLight_ProcessIncomingMsg_9
        INC       R0
        SJMP      ??CrossCallReturnLabel_3
// 1626       break;
// 1627 #endif
// 1628 #ifdef ZCL_REPORT
// 1629     // Attribute Reporting implementation should be added here
// 1630     case ZCL_CMD_CONFIG_REPORT:
// 1631       // 璋璇淇℃锛缃ュ
// 1632       debug_str("Config Report");
??zclSampleLight_ProcessIncomingMsg_2:
        ; Setup parameters for call to function debug_str
        MOV       R2,#`?<Constant "Config Report">` & 0xff
        MOV       R3,#(`?<Constant "Config Report">` >> 8) & 0xff
        SJMP      ??zclSampleLight_ProcessIncomingMsg_10
// 1633       // zclSampleLight_ProcessInConfigReportCmd( pInMsg );
// 1634       break;
// 1635 
// 1636     case ZCL_CMD_CONFIG_REPORT_RSP:
// 1637       // 璋璇淇℃锛缃ュ搴
// 1638       debug_str("Config Rsp");
??zclSampleLight_ProcessIncomingMsg_3:
        ; Setup parameters for call to function debug_str
        MOV       R2,#`?<Constant "Config Rsp">` & 0xff
        MOV       R3,#(`?<Constant "Config Rsp">` >> 8) & 0xff
        SJMP      ??zclSampleLight_ProcessIncomingMsg_10
// 1639       // zclSampleLight_ProcessInConfigReportRspCmd( pInMsg );
// 1640       break;
// 1641 
// 1642     case ZCL_CMD_READ_REPORT_CFG:
// 1643       // 璋璇淇℃锛璇诲ュ缃
// 1644       debug_str("Read Report Cfg");
??zclSampleLight_ProcessIncomingMsg_4:
        ; Setup parameters for call to function debug_str
        MOV       R2,#`?<Constant "Read Report Cfg">` & 0xff
        MOV       R3,#(`?<Constant "Read Report Cfg">` >> 8) & 0xff
        SJMP      ??zclSampleLight_ProcessIncomingMsg_10
// 1645       // zclSampleLight_ProcessInReadReportCfgCmd( pInMsg );
// 1646       break;
// 1647 
// 1648     case ZCL_CMD_READ_REPORT_CFG_RSP:
// 1649       // 璋璇淇℃锛璇诲ュ缃搴
// 1650       debug_str("Read Cfg Rsp");
??zclSampleLight_ProcessIncomingMsg_5:
        ; Setup parameters for call to function debug_str
        MOV       R2,#`?<Constant "Read Cfg Rsp">` & 0xff
        MOV       R3,#(`?<Constant "Read Cfg Rsp">` >> 8) & 0xff
        SJMP      ??zclSampleLight_ProcessIncomingMsg_10
// 1651       // zclSampleLight_ProcessInReadReportCfgRspCmd( pInMsg );
// 1652       break;
// 1653 
// 1654     case ZCL_CMD_REPORT:
// 1655       // 璋璇淇℃锛ュ戒护
// 1656       debug_str("Report Cmd");
??zclSampleLight_ProcessIncomingMsg_6:
        ; Setup parameters for call to function debug_str
        MOV       R2,#`?<Constant "Report Cmd">` & 0xff
        MOV       R3,#(`?<Constant "Report Cmd">` >> 8) & 0xff
        SJMP      ??zclSampleLight_ProcessIncomingMsg_10
// 1657       // zclSampleLight_ProcessInReportCmd( pInMsg );
// 1658       break;
// 1659 #endif
// 1660     case ZCL_CMD_DEFAULT_RSP:
// 1661       // 璋璇淇℃锛榛璁ゅ搴
// 1662       debug_str("Default Rsp");
??zclSampleLight_ProcessIncomingMsg_7:
        ; Setup parameters for call to function debug_str
        MOV       R2,#`?<Constant "Default Rsp">` & 0xff
        MOV       R3,#(`?<Constant "Default Rsp">` >> 8) & 0xff
        SJMP      ??zclSampleLight_ProcessIncomingMsg_10
// 1663       zclSampleLight_ProcessInDefaultRspCmd( pInMsg );
// 1664       break;
// 1665 #ifdef ZCL_DISCOVER
// 1666     case ZCL_CMD_DISCOVER_CMDS_RECEIVED_RSP:
// 1667       // 璋璇淇℃锛板戒护搴
// 1668       debug_str("Disc Cmds Rsp");
// 1669       zclSampleLight_ProcessInDiscCmdsRspCmd( pInMsg );
// 1670       break;
// 1671 
// 1672     case ZCL_CMD_DISCOVER_CMDS_GEN_RSP:
// 1673       // 璋璇淇℃锛板戒护ㄥ搴
// 1674       debug_str("Disc Gen Rsp");
// 1675       zclSampleLight_ProcessInDiscCmdsRspCmd( pInMsg );
// 1676       break;
// 1677 
// 1678     case ZCL_CMD_DISCOVER_ATTRS_RSP:
// 1679       // 璋璇淇℃锛板у搴
// 1680       debug_str("Disc Attrs Rsp");
// 1681       zclSampleLight_ProcessInDiscAttrsRspCmd( pInMsg );
// 1682       break;
// 1683 
// 1684     case ZCL_CMD_DISCOVER_ATTRS_EXT_RSP:
// 1685       // 璋璇淇℃锛板ф╁搴
// 1686       debug_str("Disc Ext Rsp");
// 1687       zclSampleLight_ProcessInDiscAttrsExtRspCmd( pInMsg );
// 1688       break;
// 1689 #endif
// 1690     default:
// 1691       // 璋璇淇℃锛ュ戒护
// 1692       debug_str("Unknown Cmd");
??zclSampleLight_ProcessIncomingMsg_8:
        ; Setup parameters for call to function debug_str
        MOV       R2,#`?<Constant "Unknown Cmd">` & 0xff
        MOV       R3,#(`?<Constant "Unknown Cmd">` >> 8) & 0xff
??zclSampleLight_ProcessIncomingMsg_10:
        LCALL     `??debug_str::?relay`; Banked call to: debug_str
// 1693       break;
// 1694   }
// 1695 
// 1696   if ( pInMsg->attrCmd )
??zclSampleLight_ProcessIncomingMsg_9:
        MOV       DPL,?V0
        MOV       DPH,?V1
        MOVX      A,@DPTR
        MOV       R2,A
        INC       DPTR
        MOVX      A,@DPTR
        MOV       R3,A
        MOV       A,R2
        ORL       A,R3
        JZ        ??zclSampleLight_ProcessIncomingMsg_11
// 1697     osal_mem_free( pInMsg->attrCmd );
        ; Setup parameters for call to function osal_mem_free
        LCALL     `??osal_mem_free::?relay`; Banked call to: osal_mem_free
// 1698 }
??zclSampleLight_ProcessIncomingMsg_11:
        LJMP      ?Subroutine3 & 0xFFFF
          CFI EndBlock cfiBlock22

        RSEG BANKED_CODE:HUGECODE:NOROOT(0)
?Subroutine5:
          CFI Block cfiCond23 Using cfiCommon0
          CFI Function zclSampleLight_ProcessIncomingMsg
          CFI Conditional ??CrossCallReturnLabel_2
          CFI R6 load(1, XDATA, add(CFA_XSP16, literal(-10)))
          CFI VB load(1, XDATA, add(CFA_XSP16, literal(-9)))
          CFI V0 load(1, XDATA, add(CFA_XSP16, literal(-8)))
          CFI V1 load(1, XDATA, add(CFA_XSP16, literal(-7)))
          CFI R7 load(1, XDATA, add(CFA_XSP16, literal(-6)))
          CFI ?RET_LOW load(1, XDATA, add(CFA_XSP16, literal(-5)))
          CFI ?RET_HIGH load(1, XDATA, add(CFA_XSP16, literal(-4)))
          CFI ?BRET_EXT load(1, XDATA, add(CFA_XSP16, literal(-3)))
          CFI DPL0 load(1, XDATA, add(CFA_XSP16, literal(-2)))
          CFI DPH0 load(1, XDATA, add(CFA_XSP16, literal(-1)))
          CFI CFA_SP SP+-2
          CFI CFA_XSP16 add(XSP16, 10)
          CFI Block cfiCond24 Using cfiCommon0
          CFI (cfiCond24) Function zclSampleLight_ProcessIncomingMsg
          CFI (cfiCond24) Conditional ??CrossCallReturnLabel_3
          CFI (cfiCond24) R6 load(1, XDATA, add(CFA_XSP16, literal(-10)))
          CFI (cfiCond24) VB load(1, XDATA, add(CFA_XSP16, literal(-9)))
          CFI (cfiCond24) V0 load(1, XDATA, add(CFA_XSP16, literal(-8)))
          CFI (cfiCond24) V1 load(1, XDATA, add(CFA_XSP16, literal(-7)))
          CFI (cfiCond24) R7 load(1, XDATA, add(CFA_XSP16, literal(-6)))
          CFI (cfiCond24) ?RET_LOW load(1, XDATA, add(CFA_XSP16, literal(-5)))
          CFI (cfiCond24) ?RET_HIGH load(1, XDATA, add(CFA_XSP16, literal(-4)))
          CFI (cfiCond24) ?BRET_EXT load(1, XDATA, add(CFA_XSP16, literal(-3)))
          CFI (cfiCond24) DPL0 load(1, XDATA, add(CFA_XSP16, literal(-2)))
          CFI (cfiCond24) DPH0 load(1, XDATA, add(CFA_XSP16, literal(-1)))
          CFI (cfiCond24) CFA_SP SP+-2
          CFI (cfiCond24) CFA_XSP16 add(XSP16, 10)
          CFI Block cfiPicker25 Using cfiCommon1
          CFI (cfiPicker25) NoFunction
          CFI (cfiPicker25) Picker
        MOV       DPL,?V0
        MOV       DPH,?V1
        MOVX      A,@DPTR
        MOV       R0,A
        INC       DPTR
        MOVX      A,@DPTR
        MOV       R1,A
        MOV       DPL,R0
        MOV       DPH,R1
        MOV       R0,#0x0
        RET
          CFI EndBlock cfiCond23
          CFI EndBlock cfiCond24
          CFI EndBlock cfiPicker25
// 1699 
// 1700 #ifdef ZCL_READ
// 1701 /*********************************************************************
// 1702  * @fn      zclSampleLight_ProcessInReadRspCmd
// 1703  *
// 1704  * @brief   Process the "Profile" Read Response Command
// 1705  *
// 1706  * @param   pInMsg - incoming message to process
// 1707  *
// 1708  * @return  none
// 1709  */
// 1710 static uint8 zclSampleLight_ProcessInReadRspCmd( zclIncomingMsg_t *pInMsg )
// 1711 {
// 1712   zclReadRspCmd_t *readRspCmd;
// 1713   uint8 i;
// 1714 
// 1715   readRspCmd = (zclReadRspCmd_t *)pInMsg->attrCmd;
// 1716   for (i = 0; i < readRspCmd->numAttr; i++)
// 1717   {
// 1718     // Notify the originator of the results of the original read attributes
// 1719     // attempt and, for each successfull request, the value of the requested
// 1720     // attribute
// 1721   }
// 1722 
// 1723   return ( TRUE );
// 1724 }
// 1725 #endif // ZCL_READ
// 1726 
// 1727 #ifdef ZCL_WRITE
// 1728 /*********************************************************************
// 1729  * @fn      zclSampleLight_ProcessInWriteRspCmd
// 1730  *
// 1731  * @brief   Process the "Profile" Write Response Command
// 1732  *
// 1733  * @param   pInMsg - incoming message to process
// 1734  *
// 1735  * @return  none
// 1736  */
// 1737 static uint8 zclSampleLight_ProcessInWriteRspCmd( zclIncomingMsg_t *pInMsg )
// 1738 {
// 1739   zclWriteRspCmd_t *writeRspCmd;
// 1740   uint8 i;
// 1741 
// 1742   writeRspCmd = (zclWriteRspCmd_t *)pInMsg->attrCmd;
// 1743   for ( i = 0; i < writeRspCmd->numAttr; i++ )
// 1744   {
// 1745     // Notify the device of the results of the its original write attributes
// 1746     // command.
// 1747   }
// 1748 
// 1749   return ( TRUE );
// 1750 }
// 1751 #endif // ZCL_WRITE
// 1752 
// 1753 /*********************************************************************
// 1754  * @fn      zclSampleLight_ProcessInDefaultRspCmd
// 1755  *
// 1756  * @brief   Process the "Profile" Default Response Command
// 1757  *
// 1758  * @param   pInMsg - incoming message to process
// 1759  *
// 1760  * @return  none
// 1761  */
// 1762 static uint8 zclSampleLight_ProcessInDefaultRspCmd( zclIncomingMsg_t *pInMsg )
// 1763 {
// 1764   // zclDefaultRspCmd_t *defaultRspCmd = (zclDefaultRspCmd_t *)pInMsg->attrCmd;
// 1765 
// 1766   // Device is notified of the Default Response command.
// 1767   (void)pInMsg;
// 1768 
// 1769   return ( TRUE );
// 1770 }
// 1771 
// 1772 #ifdef ZCL_DISCOVER
// 1773 /*********************************************************************
// 1774  * @fn      zclSampleLight_ProcessInDiscCmdsRspCmd
// 1775  *
// 1776  * @brief   Process the Discover Commands Response Command
// 1777  *
// 1778  * @param   pInMsg - incoming message to process
// 1779  *
// 1780  * @return  none
// 1781  */
// 1782 static uint8 zclSampleLight_ProcessInDiscCmdsRspCmd( zclIncomingMsg_t *pInMsg )
// 1783 {
// 1784   zclDiscoverCmdsCmdRsp_t *discoverRspCmd;
// 1785   uint8 i;
// 1786 
// 1787   discoverRspCmd = (zclDiscoverCmdsCmdRsp_t *)pInMsg->attrCmd;
// 1788   for ( i = 0; i < discoverRspCmd->numCmd; i++ )
// 1789   {
// 1790     // Device is notified of the result of its attribute discovery command.
// 1791   }
// 1792 
// 1793   return ( TRUE );
// 1794 }
// 1795 
// 1796 /*********************************************************************
// 1797  * @fn      zclSampleLight_ProcessInDiscAttrsRspCmd
// 1798  *
// 1799  * @brief   Process the "Profile" Discover Attributes Response Command
// 1800  *
// 1801  * @param   pInMsg - incoming message to process
// 1802  *
// 1803  * @return  none
// 1804  */
// 1805 static uint8 zclSampleLight_ProcessInDiscAttrsRspCmd( zclIncomingMsg_t *pInMsg )
// 1806 {
// 1807   zclDiscoverAttrsRspCmd_t *discoverRspCmd;
// 1808   uint8 i;
// 1809 
// 1810   discoverRspCmd = (zclDiscoverAttrsRspCmd_t *)pInMsg->attrCmd;
// 1811   for ( i = 0; i < discoverRspCmd->numAttr; i++ )
// 1812   {
// 1813     // Device is notified of the result of its attribute discovery command.
// 1814   }
// 1815 
// 1816   return ( TRUE );
// 1817 }
// 1818 
// 1819 /*********************************************************************
// 1820  * @fn      zclSampleLight_ProcessInDiscAttrsExtRspCmd
// 1821  *
// 1822  * @brief   Process the "Profile" Discover Attributes Extended Response Command
// 1823  *
// 1824  * @param   pInMsg - incoming message to process
// 1825  *
// 1826  * @return  none
// 1827  */
// 1828 static uint8 zclSampleLight_ProcessInDiscAttrsExtRspCmd( zclIncomingMsg_t *pInMsg )
// 1829 {
// 1830   zclDiscoverAttrsExtRsp_t *discoverRspCmd;
// 1831   uint8 i;
// 1832 
// 1833   discoverRspCmd = (zclDiscoverAttrsExtRsp_t *)pInMsg->attrCmd;
// 1834   for ( i = 0; i < discoverRspCmd->numAttr; i++ )
// 1835   {
// 1836     // Device is notified of the result of its attribute discovery command.
// 1837   }
// 1838 
// 1839   return ( TRUE );
// 1840 }
// 1841 #endif // ZCL_DISCOVER
// 1842 
// 1843 #if ZCL_EZMODE
// 1844 /*********************************************************************
// 1845  * @fn      zclSampleLight_ProcessZDOMsgs
// 1846  *
// 1847  * @brief   Called when this node receives a ZDO/ZDP response.
// 1848  *
// 1849  * @param   none
// 1850  *
// 1851  * @return  status
// 1852  */
// 1853 static void zclSampleLight_ProcessZDOMsgs( zdoIncomingMsg_t *pMsg )
// 1854 {
// 1855   zclEZMode_ActionData_t data;
// 1856   ZDO_MatchDescRsp_t *pMatchDescRsp;
// 1857 
// 1858   // Let EZ-Mode know of the Simple Descriptor Response
// 1859   if ( pMsg->clusterID == Match_Desc_rsp )
// 1860   {
// 1861     pMatchDescRsp = ZDO_ParseEPListRsp( pMsg );
// 1862     data.pMatchDescRsp = pMatchDescRsp;
// 1863     zcl_EZModeAction( EZMODE_ACTION_MATCH_DESC_RSP, &data );
// 1864     osal_mem_free( pMatchDescRsp );
// 1865   }
// 1866 }
// 1867 
// 1868 /*********************************************************************
// 1869  * @fn      zclSampleLight_EZModeCB
// 1870  *
// 1871  * @brief   The Application is informed of events. This can be used to show on the UI what is
// 1872 *           going on during EZ-Mode steering/finding/binding.
// 1873  *
// 1874  * @param   state - an
// 1875  *
// 1876  * @return  none
// 1877  */
// 1878 static void zclSampleLight_EZModeCB( zlcEZMode_State_t state, zclEZMode_CBData_t *pData )
// 1879 {
// 1880 #ifdef LCD_SUPPORTED
// 1881   char *pStr;
// 1882   uint8 err;
// 1883 #endif
// 1884 
// 1885   // 璋璇淇℃锛EZ-Mode舵
// 1886   debug_str("EZ State");
// 1887 
// 1888   // time to go into identify mode
// 1889   if ( state == EZMODE_STATE_IDENTIFYING )
// 1890   {
// 1891     // 璋璇淇℃锛杩ヨ妯″
// 1892     debug_str("EZ: Identify");
// 1893     
// 1894 #ifdef LCD_SUPPORTED
// 1895     HalLcdWriteString ( "EZMode", HAL_LCD_LINE_2 );
// 1896 #endif
// 1897 
// 1898     zclSampleLight_IdentifyTime = ( EZMODE_TIME / 1000 );  // convert to seconds
// 1899     zclSampleLight_ProcessIdentifyTimeChange();
// 1900   }
// 1901 
// 1902   // autoclosing, show what happened (success, cancelled, etc...)
// 1903   if( state == EZMODE_STATE_AUTOCLOSE )
// 1904   {
// 1905     // 璋璇淇℃锛ㄥ抽舵
// 1906     debug_str("EZ: AutoClose");
// 1907     
// 1908 #ifdef LCD_SUPPORTED
// 1909     pStr = NULL;
// 1910     err = pData->sAutoClose.err;
// 1911     if ( err == EZMODE_ERR_SUCCESS )
// 1912     {
// 1913       pStr = "EZMode: Success";
// 1914     }
// 1915     else if ( err == EZMODE_ERR_NOMATCH )
// 1916     {
// 1917       pStr = "EZMode: NoMatch"; // not a match made in heaven
// 1918     }
// 1919     if ( pStr )
// 1920     {
// 1921       if ( giLightScreenMode == LIGHT_MAINMODE )
// 1922       {
// 1923         HalLcdWriteString ( pStr, HAL_LCD_LINE_2 );
// 1924       }
// 1925     }
// 1926 #endif
// 1927   }
// 1928 
// 1929   // finished, either show DstAddr/EP, or nothing (depending on success or not)
// 1930   if( state == EZMODE_STATE_FINISH )
// 1931   {
// 1932     // 璋璇淇℃锛EZ-Mode瀹
// 1933     debug_str("EZ: Finish");
// 1934     
// 1935     // turn off identify mode
// 1936     zclSampleLight_IdentifyTime = 0;
// 1937     zclSampleLight_ProcessIdentifyTimeChange();
// 1938 
// 1939 #ifdef LCD_SUPPORTED
// 1940     // if successful, inform user which nwkaddr/ep we bound to
// 1941     pStr = NULL;
// 1942     err = pData->sFinish.err;
// 1943     if( err == EZMODE_ERR_SUCCESS )
// 1944     {
// 1945       // already stated on autoclose
// 1946     }
// 1947     else if ( err == EZMODE_ERR_CANCELLED )
// 1948     {
// 1949       pStr = "EZMode: Cancel";
// 1950     }
// 1951     else if ( err == EZMODE_ERR_BAD_PARAMETER )
// 1952     {
// 1953       pStr = "EZMode: BadParm";
// 1954     }
// 1955     else if ( err == EZMODE_ERR_TIMEDOUT )
// 1956     {
// 1957       pStr = "EZMode: TimeOut";
// 1958     }
// 1959     if ( pStr )
// 1960     {
// 1961       if ( giLightScreenMode == LIGHT_MAINMODE )
// 1962       {
// 1963         HalLcdWriteString ( pStr, HAL_LCD_LINE_2 );
// 1964       }
// 1965     }
// 1966 #endif
// 1967     // show main UI screen 3 seconds after binding
// 1968     osal_start_timerEx( zclSampleLight_TaskID, SAMPLELIGHT_MAIN_SCREEN_EVT, 3000 );
// 1969   }
// 1970 }
// 1971 #endif // ZCL_EZMODE
// 1972 
// 1973 /****************************************************************************
// 1974 ****************************************************************************/
// 1975 
// 1976 /*********************************************************************
// 1977  * @fn      zclSampleLight_SendSwitchReport
// 1978  *
// 1979  * @brief   Send switch state report to Zigbee network
// 1980  *
// 1981  * @param   endpoint - the endpoint to send report from
// 1982  * @param   state - the switch state (LIGHT_ON or LIGHT_OFF)
// 1983  *
// 1984  * @return  none
// 1985  */

        RSEG BANKED_CODE:HUGECODE:NOROOT(0)
// 1986 static void zclSampleLight_SendSwitchReport(uint8 endpoint, uint8 state)
zclSampleLight_SendSwitchReport:
          CFI Block cfiBlock26 Using cfiCommon0
          CFI Function zclSampleLight_SendSwitchReport
        CODE
// 1987 {
        FUNCALL zclSampleLight_SendSwitchReport, debug_str
        LOCFRAME ISTACK, 0, STACK
        LOCFRAME PSTACK, 0, STACK
        LOCFRAME XSTACK, 25, STACK
        LOCFRAME IOVERLAY, 0, STATIC
        LOCFRAME DOVERLAY, 0, STATIC
        ARGFRAME ISTACK, 0, STACK
        ARGFRAME PSTACK, 0, STACK
        ARGFRAME XSTACK, 25, STACK
        ARGFRAME IOVERLAY, 0, STATIC
        ARGFRAME DOVERLAY, 0, STATIC
        FUNCALL zclSampleLight_SendSwitchReport, osal_mem_alloc
        LOCFRAME ISTACK, 0, STACK
        LOCFRAME PSTACK, 0, STACK
        LOCFRAME XSTACK, 25, STACK
        LOCFRAME IOVERLAY, 0, STATIC
        LOCFRAME DOVERLAY, 0, STATIC
        ARGFRAME ISTACK, 0, STACK
        ARGFRAME PSTACK, 0, STACK
        ARGFRAME XSTACK, 25, STACK
        ARGFRAME IOVERLAY, 0, STATIC
        ARGFRAME DOVERLAY, 0, STATIC
        FUNCALL zclSampleLight_SendSwitchReport, zcl_SendReportCmd
        LOCFRAME ISTACK, 0, STACK
        LOCFRAME PSTACK, 0, STACK
        LOCFRAME XSTACK, 30, STACK
        LOCFRAME IOVERLAY, 0, STATIC
        LOCFRAME DOVERLAY, 0, STATIC
        ARGFRAME ISTACK, 0, STACK
        ARGFRAME PSTACK, 0, STACK
        ARGFRAME XSTACK, 30, STACK
        ARGFRAME IOVERLAY, 0, STATIC
        ARGFRAME DOVERLAY, 0, STATIC
        FUNCALL zclSampleLight_SendSwitchReport, osal_mem_free
        LOCFRAME ISTACK, 0, STACK
        LOCFRAME PSTACK, 0, STACK
        LOCFRAME XSTACK, 25, STACK
        LOCFRAME IOVERLAY, 0, STATIC
        LOCFRAME DOVERLAY, 0, STATIC
        ARGFRAME ISTACK, 0, STACK
        ARGFRAME PSTACK, 0, STACK
        ARGFRAME XSTACK, 25, STACK
        ARGFRAME IOVERLAY, 0, STATIC
        ARGFRAME DOVERLAY, 0, STATIC
        FUNCALL zclSampleLight_SendSwitchReport, debug_str
        LOCFRAME ISTACK, 0, STACK
        LOCFRAME PSTACK, 0, STACK
        LOCFRAME XSTACK, 25, STACK
        LOCFRAME IOVERLAY, 0, STATIC
        LOCFRAME DOVERLAY, 0, STATIC
        ARGFRAME ISTACK, 0, STACK
        ARGFRAME PSTACK, 0, STACK
        ARGFRAME XSTACK, 25, STACK
        ARGFRAME IOVERLAY, 0, STATIC
        ARGFRAME DOVERLAY, 0, STATIC
        FUNCALL zclSampleLight_SendSwitchReport, debug_str
        LOCFRAME ISTACK, 0, STACK
        LOCFRAME PSTACK, 0, STACK
        LOCFRAME XSTACK, 25, STACK
        LOCFRAME IOVERLAY, 0, STATIC
        LOCFRAME DOVERLAY, 0, STATIC
        ARGFRAME ISTACK, 0, STACK
        ARGFRAME PSTACK, 0, STACK
        ARGFRAME XSTACK, 25, STACK
        ARGFRAME IOVERLAY, 0, STATIC
        ARGFRAME DOVERLAY, 0, STATIC
        REQUIRE ?V0
        REQUIRE ?V1
        REQUIRE ?V2
        REQUIRE ?V3
        MOV       A,#-0xc
        LCALL     ?BANKED_ENTER_XDATA
          CFI DPH0 load(1, XDATA, add(CFA_XSP16, literal(-1)))
          CFI DPL0 load(1, XDATA, add(CFA_XSP16, literal(-2)))
          CFI ?BRET_EXT load(1, XDATA, add(CFA_XSP16, literal(-3)))
          CFI ?RET_HIGH load(1, XDATA, add(CFA_XSP16, literal(-4)))
          CFI ?RET_LOW load(1, XDATA, add(CFA_XSP16, literal(-5)))
          CFI R7 load(1, XDATA, add(CFA_XSP16, literal(-6)))
          CFI V3 load(1, XDATA, add(CFA_XSP16, literal(-7)))
          CFI V2 load(1, XDATA, add(CFA_XSP16, literal(-8)))
          CFI V1 load(1, XDATA, add(CFA_XSP16, literal(-9)))
          CFI V0 load(1, XDATA, add(CFA_XSP16, literal(-10)))
          CFI VB load(1, XDATA, add(CFA_XSP16, literal(-11)))
          CFI R6 load(1, XDATA, add(CFA_XSP16, literal(-12)))
          CFI CFA_SP SP+0
          CFI CFA_XSP16 add(XSP16, 12)
        ; Saved register size: 12
        ; Auto size: 13
        MOV       A,#-0xd
        LCALL     ?ALLOC_XSTACK8
          CFI CFA_XSP16 add(XSP16, 25)
        MOV       A,R2
        MOV       DPL,?XSP + 0
        MOV       DPH,?XSP + 1
        MOVX      @DPTR,A
        MOV       A,R1
        MOV       R6,A
// 1988 #ifdef ZCL_REPORT
// 1989   zclReportCmd_t *pReportCmd;
// 1990   afAddrType_t dstAddr;
// 1991   
// 1992   // 璋璇淇℃锛寮虫ュ
// 1993   debug_str("Send Switch Report");
        ; Setup parameters for call to function debug_str
        MOV       R2,#`?<Constant "Send Switch Report">` & 0xff
        MOV       R3,#(`?<Constant "Send Switch Report">` >> 8) & 0xff
        LCALL     `??debug_str::?relay`; Banked call to: debug_str
// 1994   
// 1995   // ュ戒护瀛
// 1996   pReportCmd = osal_mem_alloc(sizeof(zclReportCmd_t) + sizeof(zclReport_t));
        ; Setup parameters for call to function osal_mem_alloc
        MOV       R2,#0x6
        MOV       R3,#0x0
        LCALL     `??osal_mem_alloc::?relay`; Banked call to: osal_mem_alloc
        MOV       ?V0,R2
        MOV       ?V1,R3
// 1997   if (pReportCmd != NULL)
        MOV       A,R2
        ORL       A,?V1
        JZ        ??zclSampleLight_SendSwitchReport_0
// 1998   {
// 1999     // 璁剧疆ュ戒护
// 2000     pReportCmd->numAttr = 1;
        MOV       DPL,R2
        MOV       DPH,R3
        MOV       A,#0x1
        MOVX      @DPTR,A
// 2001     pReportCmd->attrList[0].attrID = ATTRID_ON_OFF;
        INC       DPTR
        CLR       A
        MOVX      @DPTR,A
        INC       DPTR
        LCALL     ?Subroutine4 & 0xFFFF
// 2002     pReportCmd->attrList[0].dataType = ZCL_DATATYPE_BOOLEAN;
??CrossCallReturnLabel_0:
        MOV       A,#0x10
        LCALL     ?Subroutine4 & 0xFFFF
// 2003     pReportCmd->attrList[0].attrData = (void *)(&state);
??CrossCallReturnLabel_1:
        INC       DPTR
        MOV       A,?XSP + 0
        MOVX      @DPTR,A
        INC       DPTR
        MOV       A,?XSP + 1
        MOVX      @DPTR,A
// 2004     
// 2005     // 璁剧疆板涓哄璋
// 2006     dstAddr.addrMode = afAddr16Bit;
        MOV       A,#0x9
        LCALL     ?XSTACK_DISP0_8
        MOV       A,#0x2
        MOVX      @DPTR,A
// 2007     dstAddr.addr.shortAddr = 0x0000;  // 璋ㄥ板
        DEC       A
        LCALL     ?XSTACK_DISP0_8
        CLR       A
        MOVX      @DPTR,A
        INC       DPTR
        MOVX      @DPTR,A
// 2008     dstAddr.endPoint = 1;  // 淇姝ｏ璋ㄧ瑰璇ユ1
        MOV       A,#0xa
        LCALL     ?XSTACK_DISP0_8
        MOV       A,#0x1
        MOVX      @DPTR,A
// 2009     dstAddr.panId = 0;
        MOV       A,#0xb
        LCALL     ?XSTACK_DISP0_8
        CLR       A
        MOVX      @DPTR,A
        INC       DPTR
        MOVX      @DPTR,A
// 2010     
// 2011     // ュ戒护
// 2012     zcl_SendReportCmd(endpoint, &dstAddr, ZCL_CLUSTER_ID_GEN_ON_OFF,
// 2013                       pReportCmd, ZCL_FRAME_SERVER_CLIENT_DIR, TRUE, zclSampleLight_SeqNum++);
        MOV       DPTR,#zclSampleLight_SeqNum
        MOVX      A,@DPTR
        MOV       R0,A
        MOV       A,#0x1
        ADD       A,R0
        MOVX      @DPTR,A
        ; Setup parameters for call to function zcl_SendReportCmd
        MOV       A,R0
        MOV       ?V2,A
        MOV       R0,#?V2
        LCALL     ?PUSH_XSTACK_I_ONE
          CFI CFA_XSP16 add(XSP16, 26)
        MOV       ?V2,#0x1
        MOV       R0,#?V2
        LCALL     ?PUSH_XSTACK_I_ONE
          CFI CFA_XSP16 add(XSP16, 27)
        MOV       R0,#?V2
        LCALL     ?PUSH_XSTACK_I_ONE
          CFI CFA_XSP16 add(XSP16, 28)
        MOV       R0,#?V0
        LCALL     ?PUSH_XSTACK_I_TWO
          CFI CFA_XSP16 add(XSP16, 30)
        MOV       R4,#0x6
        MOV       R5,#0x0
        MOV       A,R4
        LCALL     ?XSTACK_DISP101_8
        MOV       A,R6
        MOV       R1,A
        LCALL     `??zcl_SendReportCmd::?relay`; Banked call to: zcl_SendReportCmd
        MOV       A,#0x5
        LCALL     ?DEALLOC_XSTACK8
          CFI CFA_XSP16 add(XSP16, 25)
// 2014     
// 2015     // 惧瀛
// 2016     osal_mem_free(pReportCmd);
        ; Setup parameters for call to function osal_mem_free
        MOV       R2,?V0
        MOV       R3,?V1
        LCALL     `??osal_mem_free::?relay`; Banked call to: osal_mem_free
// 2017     
// 2018     // 璋璇淇℃锛ュ瀹
// 2019     debug_str("Switch Report Sent");
        ; Setup parameters for call to function debug_str
        MOV       R2,#`?<Constant "Switch Report Sent">` & 0xff
        MOV       R3,#(`?<Constant "Switch Report Sent">` >> 8) & 0xff
        SJMP      ??zclSampleLight_SendSwitchReport_1
// 2020   }
// 2021   else
// 2022   {
// 2023     // 璋璇淇℃锛瀛澶辫触
// 2024     debug_str("Switch Report Mem Fail");
??zclSampleLight_SendSwitchReport_0:
        ; Setup parameters for call to function debug_str
        MOV       R2,#`?<Constant "Switch Report Mem Fail">` & 0xff
        MOV       R3,#(`?<Constant "Switch Report Mem Fail">` >> 8) & 0xff
??zclSampleLight_SendSwitchReport_1:
        LCALL     `??debug_str::?relay`; Banked call to: debug_str
// 2025   }
// 2026 #endif // ZCL_REPORT
// 2027 }
        MOV       A,#0xd
        LJMP      ?Subroutine1 & 0xFFFF
          CFI EndBlock cfiBlock26

        RSEG BANKED_CODE:HUGECODE:NOROOT(0)
?Subroutine4:
          CFI Block cfiCond27 Using cfiCommon0
          CFI Function zclSampleLight_SendSwitchReport
          CFI Conditional ??CrossCallReturnLabel_0
          CFI R6 load(1, XDATA, add(CFA_XSP16, literal(-12)))
          CFI VB load(1, XDATA, add(CFA_XSP16, literal(-11)))
          CFI V0 load(1, XDATA, add(CFA_XSP16, literal(-10)))
          CFI V1 load(1, XDATA, add(CFA_XSP16, literal(-9)))
          CFI V2 load(1, XDATA, add(CFA_XSP16, literal(-8)))
          CFI V3 load(1, XDATA, add(CFA_XSP16, literal(-7)))
          CFI R7 load(1, XDATA, add(CFA_XSP16, literal(-6)))
          CFI ?RET_LOW load(1, XDATA, add(CFA_XSP16, literal(-5)))
          CFI ?RET_HIGH load(1, XDATA, add(CFA_XSP16, literal(-4)))
          CFI ?BRET_EXT load(1, XDATA, add(CFA_XSP16, literal(-3)))
          CFI DPL0 load(1, XDATA, add(CFA_XSP16, literal(-2)))
          CFI DPH0 load(1, XDATA, add(CFA_XSP16, literal(-1)))
          CFI CFA_SP SP+-2
          CFI CFA_XSP16 add(XSP16, 25)
          CFI Block cfiCond28 Using cfiCommon0
          CFI (cfiCond28) Function zclSampleLight_SendSwitchReport
          CFI (cfiCond28) Conditional ??CrossCallReturnLabel_1
          CFI (cfiCond28) R6 load(1, XDATA, add(CFA_XSP16, literal(-12)))
          CFI (cfiCond28) VB load(1, XDATA, add(CFA_XSP16, literal(-11)))
          CFI (cfiCond28) V0 load(1, XDATA, add(CFA_XSP16, literal(-10)))
          CFI (cfiCond28) V1 load(1, XDATA, add(CFA_XSP16, literal(-9)))
          CFI (cfiCond28) V2 load(1, XDATA, add(CFA_XSP16, literal(-8)))
          CFI (cfiCond28) V3 load(1, XDATA, add(CFA_XSP16, literal(-7)))
          CFI (cfiCond28) R7 load(1, XDATA, add(CFA_XSP16, literal(-6)))
          CFI (cfiCond28) ?RET_LOW load(1, XDATA, add(CFA_XSP16, literal(-5)))
          CFI (cfiCond28) ?RET_HIGH load(1, XDATA, add(CFA_XSP16, literal(-4)))
          CFI (cfiCond28) ?BRET_EXT load(1, XDATA, add(CFA_XSP16, literal(-3)))
          CFI (cfiCond28) DPL0 load(1, XDATA, add(CFA_XSP16, literal(-2)))
          CFI (cfiCond28) DPH0 load(1, XDATA, add(CFA_XSP16, literal(-1)))
          CFI (cfiCond28) CFA_SP SP+-2
          CFI (cfiCond28) CFA_XSP16 add(XSP16, 25)
          CFI Block cfiPicker29 Using cfiCommon1
          CFI (cfiPicker29) NoFunction
          CFI (cfiPicker29) Picker
        MOVX      @DPTR,A
        MOV       DPL,R2
        MOV       DPH,R3
        INC       DPTR
        INC       DPTR
        INC       DPTR
        RET
          CFI EndBlock cfiCond27
          CFI EndBlock cfiCond28
          CFI EndBlock cfiPicker29

        RSEG XDATA_ID:CODE:NOROOT(0)
`?<Initializer for bindingInClusters>`:
        DATA16
        DW 6

        RSEG XDATA_ID:CODE:NOROOT(0)
`?<Initializer for sampleLight_TestEp>`:
        DATA8
        DB 8
        DATA16
        DW zclSampleLight_TaskID
        DW 0H
        DATA8
        DB 0

        RSEG XDATA_ID:CODE:NOROOT(0)
`?<Initializer for sampleLight_RedEp>`:
        DATA8
        DB 9
        DATA16
        DW zclSampleLight_TaskID
        DW zclSampleLight_RedSimpleDesc
        DATA8
        DB 0

        RSEG XDATA_ID:CODE:NOROOT(0)
`?<Initializer for sampleLight_Switch1Ep>`:
        DATA8
        DB 10
        DATA16
        DW zclSampleLight_TaskID
        DW zclSampleLight_Switch1SimpleDesc
        DATA8
        DB 0

        RSEG XDATA_ID:CODE:NOROOT(0)
`?<Initializer for sampleLight_Switch2Ep>`:
        DATA8
        DB 11
        DATA16
        DW zclSampleLight_TaskID
        DW zclSampleLight_Switch2SimpleDesc
        DATA8
        DB 0

        RSEG XDATA_ID:CODE:NOROOT(0)
`?<Initializer for zclSampleLight_NwkState>`:
        DATA8
        DB 1

        RSEG XDATA_ID:CODE:NOROOT(0)
`?<Initializer for sSwHelp>`:
        DB "SW5: Help       "

        RSEG XDATA_ID:CODE:NOROOT(0)
`?<Initializer for zclSampleLight_CmdCallbacks>`:
        DATA16
        DW `??zclSampleLight_BasicResetCB::?relay`
        DW `??zclSampleLight_IdentifyCB::?relay`
        DW 0H
        DW `??zclSampleLight_IdentifyQueryRspCB::?relay`
        DW `??zclSampleLight_OnOffCB::?relay`
        DW 0H
        DW 0H
        DW 0H
        DW 0H
        DW 0H
        DW 0H
        DW 0H
        DW 0H
        DW 0H

        RSEG BANK_RELAYS:CODE:REORDER:NOROOT(0)
`??zclSampleLight_Init::?relay`:
        CODE
        LCALL   ?BDISPATCH
        DATA24
        DC24    zclSampleLight_Init

        RSEG BANK_RELAYS:CODE:REORDER:NOROOT(0)
`??zclSampleLight_event_loop::?relay`:
        CODE
        LCALL   ?BDISPATCH
        DATA24
        DC24    zclSampleLight_event_loop

        RSEG BANK_RELAYS:CODE:REORDER:NOROOT(0)
`??zclSampleLight_HandleKeys::?relay`:
        CODE
        LCALL   ?BDISPATCH
        DATA24
        DC24    zclSampleLight_HandleKeys

        RSEG BANK_RELAYS:CODE:REORDER:NOROOT(0)
`??zclSampleLight_LcdDisplayUpdate::?relay`:
        CODE
        LCALL   ?BDISPATCH
        DATA24
        DC24    zclSampleLight_LcdDisplayUpdate

        RSEG BANK_RELAYS:CODE:REORDER:NOROOT(0)
`??zclSampleLight_ProcessIdentifyTimeChange::?re`:
        CODE
        LCALL   ?BDISPATCH
        DATA24
        DC24    zclSampleLight_ProcessIdentifyTimeChange

        RSEG BANK_RELAYS:CODE:REORDER:NOROOT(0)
`??zclSampleLight_BasicResetCB::?relay`:
        CODE
        LCALL   ?BDISPATCH
        DATA24
        DC24    zclSampleLight_BasicResetCB

        RSEG BANK_RELAYS:CODE:REORDER:NOROOT(0)
`??zclSampleLight_IdentifyCB::?relay`:
        CODE
        LCALL   ?BDISPATCH
        DATA24
        DC24    zclSampleLight_IdentifyCB

        RSEG BANK_RELAYS:CODE:REORDER:NOROOT(0)
`??zclSampleLight_IdentifyQueryRspCB::?relay`:
        CODE
        LCALL   ?BDISPATCH
        DATA24
        DC24    zclSampleLight_IdentifyQueryRspCB

        RSEG BANK_RELAYS:CODE:REORDER:NOROOT(0)
`??zclSampleLight_OnOffCB::?relay`:
        CODE
        LCALL   ?BDISPATCH
        DATA24
        DC24    zclSampleLight_OnOffCB

        RSEG BANK_RELAYS:CODE:REORDER:NOROOT(0)
`??zclSampleLight_ProcessIncomingMsg::?relay`:
        CODE
        LCALL   ?BDISPATCH
        DATA24
        DC24    zclSampleLight_ProcessIncomingMsg

        RSEG BANK_RELAYS:CODE:REORDER:NOROOT(0)
`??zclSampleLight_SendSwitchReport::?relay`:
        CODE
        LCALL   ?BDISPATCH
        DATA24
        DC24    zclSampleLight_SendSwitchReport

        RSEG XDATA_ROM_C:CONST:REORDER:NOROOT(0)
        DATA8
`?<Constant "Init Start">`:
        DB "Init Start"

        RSEG XDATA_ROM_C:CONST:REORDER:NOROOT(0)
        DATA8
`?<Constant "Init Done">`:
        DB "Init Done"

        RSEG XDATA_ROM_C:CONST:REORDER:NOROOT(0)
        DATA8
`?<Constant "ZCL Msg">`:
        DB "ZCL Msg"

        RSEG XDATA_ROM_C:CONST:REORDER:NOROOT(0)
        DATA8
`?<Constant "Key Event">`:
        DB "Key Event"

        RSEG XDATA_ROM_C:CONST:REORDER:NOROOT(0)
        DATA8
`?<Constant "NWK State">`:
        DB "NWK State"

        RSEG XDATA_ROM_C:CONST:REORDER:NOROOT(0)
        DATA8
`?<Constant "State: INIT">`:
        DB "State: INIT"

        RSEG XDATA_ROM_C:CONST:REORDER:NOROOT(0)
        DATA8
`?<Constant "State: DISC">`:
        DB "State: DISC"

        RSEG XDATA_ROM_C:CONST:REORDER:NOROOT(0)
        DATA8
`?<Constant "State: JOIN">`:
        DB "State: JOIN"

        RSEG XDATA_ROM_C:CONST:REORDER:NOROOT(0)
        DATA8
`?<Constant "State: END">`:
        DB "State: END"

        RSEG XDATA_ROM_C:CONST:REORDER:NOROOT(0)
        DATA8
`?<Constant "State: ROUTER">`:
        DB "State: ROUTER"

        RSEG XDATA_ROM_C:CONST:REORDER:NOROOT(0)
        DATA8
`?<Constant "State: COORD">`:
        DB "State: COORD"

        RSEG XDATA_ROM_C:CONST:REORDER:NOROOT(0)
        DATA8
`?<Constant "State: ORPHAN">`:
        DB "State: ORPHAN"

        RSEG XDATA_ROM_C:CONST:REORDER:NOROOT(0)
        DATA8
`?<Constant "State: UNAUTH">`:
        DB "State: UNAUTH"

        RSEG XDATA_ROM_C:CONST:REORDER:NOROOT(0)
        DATA8
`?<Constant "State: UNKNOWN">`:
        DB "State: UNKNOWN"

        RSEG XDATA_ROM_C:CONST:REORDER:NOROOT(0)
        DATA8
`?<Constant "Network OK">`:
        DB "Network OK"

        RSEG XDATA_ROM_C:CONST:REORDER:NOROOT(0)
        DATA8
`?<Constant "Joining...">`:
        DB "Joining..."

        RSEG XDATA_ROM_C:CONST:REORDER:NOROOT(0)
        DATA8
`?<Constant "Discovering">`:
        DB "Discovering"

        RSEG XDATA_ROM_C:CONST:REORDER:NOROOT(0)
        DATA8
`?<Constant "Unauthorized">`:
        DB "Unauthorized"

        RSEG XDATA_ROM_C:CONST:REORDER:NOROOT(0)
        DATA8
`?<Constant "ID Timeout">`:
        DB "ID Timeout"

        RSEG XDATA_ROM_C:CONST:REORDER:NOROOT(0)
        DATA8
`?<Constant "Main Screen">`:
        DB "Main Screen"

        RSEG XDATA_ROM_C:CONST:REORDER:NOROOT(0)
        DATA8
`?<Constant "S2: Pressed!\\n">`:
        DB "S2: Pressed!\012"

        RSEG XDATA_ROM_C:CONST:REORDER:NOROOT(0)
        DATA8
`?<Constant "S2: Released!\\n">`:
        DB "S2: Released!\012"

        RSEG XDATA_ROM_C:CONST:REORDER:NOROOT(0)
        DATA8
`?<Constant "S3: Pressed!\\n">`:
        DB "S3: Pressed!\012"

        RSEG XDATA_ROM_C:CONST:REORDER:NOROOT(0)
        DATA8
`?<Constant "S3: Released!\\n">`:
        DB "S3: Released!\012"

        RSEG XDATA_ROM_C:CONST:REORDER:NOROOT(0)
        DATA8
`?<Constant "SW1: Toggle">`:
        DB "SW1: Toggle"

        RSEG XDATA_ROM_C:CONST:REORDER:NOROOT(0)
        DATA8
`?<Constant "SW2: Bind">`:
        DB "SW2: Bind"

        RSEG XDATA_ROM_C:CONST:REORDER:NOROOT(0)
        DATA8
`?<Constant "SW3: NWK Status">`:
        DB "SW3: NWK Status"

        RSEG XDATA_ROM_C:CONST:REORDER:NOROOT(0)
        DATA8
`?<Constant "SW4: Permit Join">`:
        DB "SW4: Permit Join"

        RSEG XDATA_ROM_C:CONST:REORDER:NOROOT(0)
        DATA8
`?<Constant "Shift+SW5: Reset">`:
        DB "Shift+SW5: Reset"

        RSEG XDATA_ROM_C:CONST:REORDER:NOROOT(0)
        DATA8
`?<Constant "SW5: Help">`:
        DB "SW5: Help"

        RSEG XDATA_ROM_C:CONST:REORDER:NOROOT(0)
        DATA8
`?<Constant "Basic Reset">`:
        DB "Basic Reset"

        RSEG XDATA_ROM_C:CONST:REORDER:NOROOT(0)
        DATA8
`?<Constant "Identify Cmd">`:
        DB "Identify Cmd"

        RSEG XDATA_ROM_C:CONST:REORDER:NOROOT(0)
        DATA8
`?<Constant "ID Query Rsp">`:
        DB "ID Query Rsp"

        RSEG XDATA_ROM_C:CONST:REORDER:NOROOT(0)
        DATA8
`?<Constant "OnOff Cmd">`:
        DB "OnOff Cmd"

        RSEG XDATA_ROM_C:CONST:REORDER:NOROOT(0)
        DATA8
`?<Constant "Process ZCL">`:
        DB "Process ZCL"

        RSEG XDATA_ROM_C:CONST:REORDER:NOROOT(0)
        DATA8
`?<Constant "Read Rsp">`:
        DB "Read Rsp"

        RSEG XDATA_ROM_C:CONST:REORDER:NOROOT(0)
        DATA8
`?<Constant "Write Rsp">`:
        DB "Write Rsp"

        RSEG XDATA_ROM_C:CONST:REORDER:NOROOT(0)
        DATA8
`?<Constant "Config Report">`:
        DB "Config Report"

        RSEG XDATA_ROM_C:CONST:REORDER:NOROOT(0)
        DATA8
`?<Constant "Config Rsp">`:
        DB "Config Rsp"

        RSEG XDATA_ROM_C:CONST:REORDER:NOROOT(0)
        DATA8
`?<Constant "Read Report Cfg">`:
        DB "Read Report Cfg"

        RSEG XDATA_ROM_C:CONST:REORDER:NOROOT(0)
        DATA8
`?<Constant "Read Cfg Rsp">`:
        DB "Read Cfg Rsp"

        RSEG XDATA_ROM_C:CONST:REORDER:NOROOT(0)
        DATA8
`?<Constant "Report Cmd">`:
        DB "Report Cmd"

        RSEG XDATA_ROM_C:CONST:REORDER:NOROOT(0)
        DATA8
`?<Constant "Default Rsp">`:
        DB "Default Rsp"

        RSEG XDATA_ROM_C:CONST:REORDER:NOROOT(0)
        DATA8
`?<Constant "Unknown Cmd">`:
        DB "Unknown Cmd"

        RSEG XDATA_ROM_C:CONST:REORDER:NOROOT(0)
        DATA8
`?<Constant "Send Switch Report">`:
        DB "Send Switch Report"

        RSEG XDATA_ROM_C:CONST:REORDER:NOROOT(0)
        DATA8
`?<Constant "Switch Report Sent">`:
        DB "Switch Report Sent"

        RSEG XDATA_ROM_C:CONST:REORDER:NOROOT(0)
        DATA8
`?<Constant "Switch Report Mem Fail">`:
        DB "Switch Report Mem Fail"

        RSEG XDATA_ROM_C:CONST:REORDER:NOROOT(0)
        DATA32
__Constant_3e8:
        DD 1000

        END
// 2028 
// 2029 
// 
// 1 927 bytes in segment BANKED_CODE
//    66 bytes in segment BANK_RELAYS
//    72 bytes in segment XDATA_I
//    72 bytes in segment XDATA_ID
//   684 bytes in segment XDATA_ROM_C
//    18 bytes in segment XDATA_Z
// 
//   138 bytes of CODE     memory
//   680 bytes of CONST    memory (+ 4 bytes shared)
// 1 927 bytes of HUGECODE memory
//    90 bytes of XDATA    memory
//
//Errors: none
//Warnings: none
